

Microchip MPLAB XC8 Assembler V2.32 build 20210201212658 
                                                                                               Mon Nov 15 13:27:59 2021

Microchip MPLAB XC8 C Compiler v2.32 (Free license) build 20210201212658 Og1 
     1                           	processor	18F4550
     2                           	fnconf	rparam,??,?,0
     3                           	pagewidth 120
     4                           	opt	flic
     5                           	psect	mediumconst,global,reloc=2,class=MEDIUMCONST,delta=1,noexec
     6                           	psect	cinit,global,reloc=2,class=CODE,delta=1
     7                           	psect	bssCOMRAM,global,class=COMRAM,space=1,delta=1,lowdata,noexec
     8                           	psect	cstackCOMRAM,global,class=COMRAM,space=1,delta=1,lowdata,noexec
     9                           	psect	text0,global,reloc=2,class=CODE,delta=1
    10                           	psect	text1,global,reloc=2,class=CODE,delta=1
    11                           	psect	text2,global,reloc=2,class=CODE,delta=1
    12                           	psect	text3,global,reloc=2,class=CODE,delta=1
    13                           	psect	text4,global,reloc=2,class=CODE,delta=1
    14                           	psect	text5,global,reloc=2,class=CODE,delta=1
    15                           	psect	text6,global,reloc=2,class=CODE,delta=1
    16                           	psect	text7,global,reloc=2,class=CODE,delta=1
    17                           	psect	intsave_regs,global,class=BIGRAM,space=1,delta=1,noexec
    18                           	psect	rparam,global,class=COMRAM,space=1,delta=1,noexec
    19                           	psect	idloc,global,abs,ovrld,class=IDLOC,space=5,delta=1,noexec
    20                           	psect	config,global,abs,ovrld,class=CONFIG,space=4,delta=1,noexec
    21  0000                     
    22                           ; Version 2.20
    23                           ; Generated 12/02/2020 GMT
    24                           ; 
    25                           ; Copyright © 2020, Microchip Technology Inc. and its subsidiaries ("Microchip")
    26                           ; All rights reserved.
    27                           ; 
    28                           ; This software is developed by Microchip Technology Inc. and its subsidiaries ("Microch
      +                          ip").
    29                           ; 
    30                           ; Redistribution and use in source and binary forms, with or without modification, are
    31                           ; permitted provided that the following conditions are met:
    32                           ; 
    33                           ;     1. Redistributions of source code must retain the above copyright notice, this lis
      +                          t of
    34                           ;        conditions and the following disclaimer.
    35                           ; 
    36                           ;     2. Redistributions in binary form must reproduce the above copyright notice, this 
      +                          list
    37                           ;        of conditions and the following disclaimer in the documentation and/or other
    38                           ;        materials provided with the distribution.
    39                           ; 
    40                           ;     3. Microchip's name may not be used to endorse or promote products derived from th
      +                          is
    41                           ;        software without specific prior written permission.
    42                           ; 
    43                           ; THIS SOFTWARE IS PROVIDED BY MICROCHIP "AS IS" AND ANY EXPRESS OR IMPLIED WARRANTIES,
    44                           ; INCLUDING, BUT NOT LIMITED TO, THE IMPLIED WARRANTIES OF MERCHANTABILITY AND FITNESS F
      +                          OR
    45                           ; PURPOSE ARE DISCLAIMED.  IN NO EVENT SHALL MICROCHIP BE LIABLE FOR ANY DIRECT, INDIREC
      +                          T,
    46                           ; INCIDENTAL, SPECIAL, EXEMPLARY, OR CONSEQUENTIAL DAMAGES (INCLUDING BUT NOT LIMITED TO
    47                           ; PROCUREMENT OF SUBSTITUTE GOODS OR SERVICES; LOSS OF USE, DATA OR PROFITS; OR BUSINESS
    48                           ; INTERRUPTION) HOWSOEVER CAUSED AND ON ANY THEORY OF LIABILITY, WHETHER IN CONTRACT, ST
      +                          RICT
    49                           ; LIABILITY, OR TORT (INCLUDING NEGLIGENCE OR OTHERWISE) ARISING IN ANY WAY OUT OF THE U
      +                          SE OF
    50                           ; THIS SOFTWARE, EVEN IF ADVISED OF THE POSSIBILITY OF SUCH DAMAGE.
    51                           ; 
    52                           ; 
    53                           ; Code-generator required, PIC18F4550 Definitions
    54                           ; 
    55                           ; SFR Addresses
    56  0000                     
    57                           	psect	mediumconst
    58  007732                     __pmediumconst:
    59                           	callstack 0
    60  007732  00                 	db	0
    61  007733                     _Font8x8:
    62                           	callstack 0
    63  007733  00                 	db	0
    64  007734  00                 	db	0
    65  007735  00                 	db	0
    66  007736  00                 	db	0
    67  007737  00                 	db	0
    68  007738  00                 	db	0
    69  007739  00                 	db	0
    70  00773A  00                 	db	0
    71  00773B  00                 	db	0
    72  00773C  00                 	db	0
    73  00773D  00                 	db	0
    74  00773E  00                 	db	0
    75  00773F  00                 	db	0
    76  007740  00                 	db	0
    77  007741  00                 	db	0
    78  007742  00                 	db	0
    79  007743  00                 	db	0
    80  007744  00                 	db	0
    81  007745  00                 	db	0
    82  007746  00                 	db	0
    83  007747  00                 	db	0
    84  007748  00                 	db	0
    85  007749  00                 	db	0
    86  00774A  00                 	db	0
    87  00774B  00                 	db	0
    88  00774C  00                 	db	0
    89  00774D  00                 	db	0
    90  00774E  00                 	db	0
    91  00774F  00                 	db	0
    92  007750  00                 	db	0
    93  007751  00                 	db	0
    94  007752  00                 	db	0
    95  007753  00                 	db	0
    96  007754  00                 	db	0
    97  007755  00                 	db	0
    98  007756  00                 	db	0
    99  007757  00                 	db	0
   100  007758  00                 	db	0
   101  007759  00                 	db	0
   102  00775A  00                 	db	0
   103  00775B  00                 	db	0
   104  00775C  00                 	db	0
   105  00775D  00                 	db	0
   106  00775E  00                 	db	0
   107  00775F  00                 	db	0
   108  007760  00                 	db	0
   109  007761  00                 	db	0
   110  007762  00                 	db	0
   111  007763  00                 	db	0
   112  007764  00                 	db	0
   113  007765  00                 	db	0
   114  007766  00                 	db	0
   115  007767  00                 	db	0
   116  007768  00                 	db	0
   117  007769  00                 	db	0
   118  00776A  00                 	db	0
   119  00776B  00                 	db	0
   120  00776C  00                 	db	0
   121  00776D  00                 	db	0
   122  00776E  00                 	db	0
   123  00776F  00                 	db	0
   124  007770  00                 	db	0
   125  007771  00                 	db	0
   126  007772  00                 	db	0
   127  007773  00                 	db	0
   128  007774  00                 	db	0
   129  007775  00                 	db	0
   130  007776  00                 	db	0
   131  007777  00                 	db	0
   132  007778  00                 	db	0
   133  007779  00                 	db	0
   134  00777A  00                 	db	0
   135  00777B  00                 	db	0
   136  00777C  00                 	db	0
   137  00777D  00                 	db	0
   138  00777E  00                 	db	0
   139  00777F  00                 	db	0
   140  007780  00                 	db	0
   141  007781  00                 	db	0
   142  007782  00                 	db	0
   143  007783  00                 	db	0
   144  007784  00                 	db	0
   145  007785  00                 	db	0
   146  007786  00                 	db	0
   147  007787  00                 	db	0
   148  007788  00                 	db	0
   149  007789  00                 	db	0
   150  00778A  00                 	db	0
   151  00778B  00                 	db	0
   152  00778C  00                 	db	0
   153  00778D  00                 	db	0
   154  00778E  00                 	db	0
   155  00778F  00                 	db	0
   156  007790  00                 	db	0
   157  007791  00                 	db	0
   158  007792  00                 	db	0
   159  007793  00                 	db	0
   160  007794  00                 	db	0
   161  007795  00                 	db	0
   162  007796  00                 	db	0
   163  007797  00                 	db	0
   164  007798  00                 	db	0
   165  007799  00                 	db	0
   166  00779A  00                 	db	0
   167  00779B  00                 	db	0
   168  00779C  00                 	db	0
   169  00779D  00                 	db	0
   170  00779E  00                 	db	0
   171  00779F  00                 	db	0
   172  0077A0  00                 	db	0
   173  0077A1  00                 	db	0
   174  0077A2  00                 	db	0
   175  0077A3  00                 	db	0
   176  0077A4  00                 	db	0
   177  0077A5  00                 	db	0
   178  0077A6  00                 	db	0
   179  0077A7  00                 	db	0
   180  0077A8  00                 	db	0
   181  0077A9  00                 	db	0
   182  0077AA  00                 	db	0
   183  0077AB  00                 	db	0
   184  0077AC  00                 	db	0
   185  0077AD  00                 	db	0
   186  0077AE  00                 	db	0
   187  0077AF  00                 	db	0
   188  0077B0  00                 	db	0
   189  0077B1  00                 	db	0
   190  0077B2  00                 	db	0
   191  0077B3  00                 	db	0
   192  0077B4  00                 	db	0
   193  0077B5  00                 	db	0
   194  0077B6  00                 	db	0
   195  0077B7  00                 	db	0
   196  0077B8  00                 	db	0
   197  0077B9  00                 	db	0
   198  0077BA  00                 	db	0
   199  0077BB  00                 	db	0
   200  0077BC  00                 	db	0
   201  0077BD  00                 	db	0
   202  0077BE  00                 	db	0
   203  0077BF  00                 	db	0
   204  0077C0  00                 	db	0
   205  0077C1  00                 	db	0
   206  0077C2  00                 	db	0
   207  0077C3  00                 	db	0
   208  0077C4  00                 	db	0
   209  0077C5  00                 	db	0
   210  0077C6  00                 	db	0
   211  0077C7  00                 	db	0
   212  0077C8  00                 	db	0
   213  0077C9  00                 	db	0
   214  0077CA  00                 	db	0
   215  0077CB  00                 	db	0
   216  0077CC  00                 	db	0
   217  0077CD  00                 	db	0
   218  0077CE  00                 	db	0
   219  0077CF  00                 	db	0
   220  0077D0  00                 	db	0
   221  0077D1  00                 	db	0
   222  0077D2  00                 	db	0
   223  0077D3  00                 	db	0
   224  0077D4  00                 	db	0
   225  0077D5  00                 	db	0
   226  0077D6  00                 	db	0
   227  0077D7  00                 	db	0
   228  0077D8  00                 	db	0
   229  0077D9  00                 	db	0
   230  0077DA  00                 	db	0
   231  0077DB  00                 	db	0
   232  0077DC  00                 	db	0
   233  0077DD  00                 	db	0
   234  0077DE  00                 	db	0
   235  0077DF  00                 	db	0
   236  0077E0  00                 	db	0
   237  0077E1  00                 	db	0
   238  0077E2  00                 	db	0
   239  0077E3  00                 	db	0
   240  0077E4  00                 	db	0
   241  0077E5  00                 	db	0
   242  0077E6  00                 	db	0
   243  0077E7  00                 	db	0
   244  0077E8  00                 	db	0
   245  0077E9  00                 	db	0
   246  0077EA  00                 	db	0
   247  0077EB  00                 	db	0
   248  0077EC  00                 	db	0
   249  0077ED  00                 	db	0
   250  0077EE  00                 	db	0
   251  0077EF  00                 	db	0
   252  0077F0  00                 	db	0
   253  0077F1  00                 	db	0
   254  0077F2  00                 	db	0
   255  0077F3  00                 	db	0
   256  0077F4  00                 	db	0
   257  0077F5  00                 	db	0
   258  0077F6  00                 	db	0
   259  0077F7  00                 	db	0
   260  0077F8  00                 	db	0
   261  0077F9  00                 	db	0
   262  0077FA  00                 	db	0
   263  0077FB  00                 	db	0
   264  0077FC  00                 	db	0
   265  0077FD  00                 	db	0
   266  0077FE  00                 	db	0
   267  0077FF  00                 	db	0
   268  007800  00                 	db	0
   269  007801  00                 	db	0
   270  007802  00                 	db	0
   271  007803  00                 	db	0
   272  007804  00                 	db	0
   273  007805  00                 	db	0
   274  007806  00                 	db	0
   275  007807  00                 	db	0
   276  007808  00                 	db	0
   277  007809  00                 	db	0
   278  00780A  00                 	db	0
   279  00780B  00                 	db	0
   280  00780C  00                 	db	0
   281  00780D  00                 	db	0
   282  00780E  00                 	db	0
   283  00780F  00                 	db	0
   284  007810  00                 	db	0
   285  007811  00                 	db	0
   286  007812  00                 	db	0
   287  007813  00                 	db	0
   288  007814  00                 	db	0
   289  007815  00                 	db	0
   290  007816  00                 	db	0
   291  007817  00                 	db	0
   292  007818  00                 	db	0
   293  007819  00                 	db	0
   294  00781A  00                 	db	0
   295  00781B  00                 	db	0
   296  00781C  00                 	db	0
   297  00781D  00                 	db	0
   298  00781E  00                 	db	0
   299  00781F  00                 	db	0
   300  007820  00                 	db	0
   301  007821  00                 	db	0
   302  007822  00                 	db	0
   303  007823  00                 	db	0
   304  007824  00                 	db	0
   305  007825  00                 	db	0
   306  007826  00                 	db	0
   307  007827  00                 	db	0
   308  007828  00                 	db	0
   309  007829  00                 	db	0
   310  00782A  00                 	db	0
   311  00782B  00                 	db	0
   312  00782C  00                 	db	0
   313  00782D  00                 	db	0
   314  00782E  00                 	db	0
   315  00782F  00                 	db	0
   316  007830  00                 	db	0
   317  007831  00                 	db	0
   318  007832  00                 	db	0
   319  007833  00                 	db	0
   320  007834  00                 	db	0
   321  007835  00                 	db	0
   322  007836  00                 	db	0
   323  007837  00                 	db	0
   324  007838  00                 	db	0
   325  007839  00                 	db	0
   326  00783A  00                 	db	0
   327  00783B  00                 	db	0
   328  00783C  06                 	db	6
   329  00783D  5F                 	db	95
   330  00783E  5F                 	db	95
   331  00783F  06                 	db	6
   332  007840  00                 	db	0
   333  007841  00                 	db	0
   334  007842  00                 	db	0
   335  007843  00                 	db	0
   336  007844  07                 	db	7
   337  007845  07                 	db	7
   338  007846  00                 	db	0
   339  007847  07                 	db	7
   340  007848  07                 	db	7
   341  007849  00                 	db	0
   342  00784A  00                 	db	0
   343  00784B  14                 	db	20
   344  00784C  7F                 	db	127
   345  00784D  7F                 	db	127
   346  00784E  14                 	db	20
   347  00784F  7F                 	db	127
   348  007850  7F                 	db	127
   349  007851  14                 	db	20
   350  007852  00                 	db	0
   351  007853  24                 	db	36
   352  007854  2E                 	db	46
   353  007855  6B                 	db	107
   354  007856  6B                 	db	107
   355  007857  3A                 	db	58
   356  007858  12                 	db	18
   357  007859  00                 	db	0
   358  00785A  00                 	db	0
   359  00785B  46                 	db	70
   360  00785C  66                 	db	102
   361  00785D  30                 	db	48
   362  00785E  18                 	db	24
   363  00785F  0C                 	db	12
   364  007860  66                 	db	102
   365  007861  62                 	db	98
   366  007862  00                 	db	0
   367  007863  30                 	db	48
   368  007864  7A                 	db	122
   369  007865  4F                 	db	79
   370  007866  5D                 	db	93
   371  007867  37                 	db	55
   372  007868  7A                 	db	122
   373  007869  48                 	db	72
   374  00786A  00                 	db	0
   375  00786B  04                 	db	4
   376  00786C  07                 	db	7
   377  00786D  03                 	db	3
   378  00786E  00                 	db	0
   379  00786F  00                 	db	0
   380  007870  00                 	db	0
   381  007871  00                 	db	0
   382  007872  00                 	db	0
   383  007873  00                 	db	0
   384  007874  1C                 	db	28
   385  007875  3E                 	db	62
   386  007876  63                 	db	99
   387  007877  41                 	db	65
   388  007878  00                 	db	0
   389  007879  00                 	db	0
   390  00787A  00                 	db	0
   391  00787B  00                 	db	0
   392  00787C  41                 	db	65
   393  00787D  63                 	db	99
   394  00787E  3E                 	db	62
   395  00787F  1C                 	db	28
   396  007880  00                 	db	0
   397  007881  00                 	db	0
   398  007882  00                 	db	0
   399  007883  08                 	db	8
   400  007884  2A                 	db	42
   401  007885  3E                 	db	62
   402  007886  1C                 	db	28
   403  007887  1C                 	db	28
   404  007888  3E                 	db	62
   405  007889  2A                 	db	42
   406  00788A  08                 	db	8
   407  00788B  08                 	db	8
   408  00788C  08                 	db	8
   409  00788D  3E                 	db	62
   410  00788E  3E                 	db	62
   411  00788F  08                 	db	8
   412  007890  08                 	db	8
   413  007891  00                 	db	0
   414  007892  00                 	db	0
   415  007893  00                 	db	0
   416  007894  80                 	db	128
   417  007895  E0                 	db	224
   418  007896  60                 	db	96
   419  007897  00                 	db	0
   420  007898  00                 	db	0
   421  007899  00                 	db	0
   422  00789A  00                 	db	0
   423  00789B  08                 	db	8
   424  00789C  08                 	db	8
   425  00789D  08                 	db	8
   426  00789E  08                 	db	8
   427  00789F  08                 	db	8
   428  0078A0  08                 	db	8
   429  0078A1  00                 	db	0
   430  0078A2  00                 	db	0
   431  0078A3  00                 	db	0
   432  0078A4  00                 	db	0
   433  0078A5  60                 	db	96
   434  0078A6  60                 	db	96
   435  0078A7  00                 	db	0
   436  0078A8  00                 	db	0
   437  0078A9  00                 	db	0
   438  0078AA  00                 	db	0
   439  0078AB  60                 	db	96
   440  0078AC  30                 	db	48
   441  0078AD  18                 	db	24
   442  0078AE  0C                 	db	12
   443  0078AF  06                 	db	6
   444  0078B0  03                 	db	3
   445  0078B1  01                 	db	1
   446  0078B2  00                 	db	0
   447  0078B3  3E                 	db	62
   448  0078B4  7F                 	db	127
   449  0078B5  71                 	db	113
   450  0078B6  59                 	db	89
   451  0078B7  4D                 	db	77
   452  0078B8  7F                 	db	127
   453  0078B9  3E                 	db	62
   454  0078BA  00                 	db	0
   455  0078BB  40                 	db	64
   456  0078BC  42                 	db	66
   457  0078BD  7F                 	db	127
   458  0078BE  7F                 	db	127
   459  0078BF  40                 	db	64
   460  0078C0  40                 	db	64
   461  0078C1  00                 	db	0
   462  0078C2  00                 	db	0
   463  0078C3  62                 	db	98
   464  0078C4  73                 	db	115
   465  0078C5  59                 	db	89
   466  0078C6  49                 	db	73
   467  0078C7  6F                 	db	111
   468  0078C8  66                 	db	102
   469  0078C9  00                 	db	0
   470  0078CA  00                 	db	0
   471  0078CB  22                 	db	34
   472  0078CC  63                 	db	99
   473  0078CD  49                 	db	73
   474  0078CE  49                 	db	73
   475  0078CF  7F                 	db	127
   476  0078D0  36                 	db	54
   477  0078D1  00                 	db	0
   478  0078D2  00                 	db	0
   479  0078D3  18                 	db	24
   480  0078D4  1C                 	db	28
   481  0078D5  16                 	db	22
   482  0078D6  53                 	db	83
   483  0078D7  7F                 	db	127
   484  0078D8  7F                 	db	127
   485  0078D9  50                 	db	80
   486  0078DA  00                 	db	0
   487  0078DB  27                 	db	39
   488  0078DC  67                 	db	103
   489  0078DD  45                 	db	69
   490  0078DE  45                 	db	69
   491  0078DF  7D                 	db	125
   492  0078E0  39                 	db	57
   493  0078E1  00                 	db	0
   494  0078E2  00                 	db	0
   495  0078E3  3C                 	db	60
   496  0078E4  7E                 	db	126
   497  0078E5  4B                 	db	75
   498  0078E6  49                 	db	73
   499  0078E7  79                 	db	121
   500  0078E8  30                 	db	48
   501  0078E9  00                 	db	0
   502  0078EA  00                 	db	0
   503  0078EB  03                 	db	3
   504  0078EC  03                 	db	3
   505  0078ED  71                 	db	113
   506  0078EE  79                 	db	121
   507  0078EF  0F                 	db	15
   508  0078F0  07                 	db	7
   509  0078F1  00                 	db	0
   510  0078F2  00                 	db	0
   511  0078F3  36                 	db	54
   512  0078F4  7F                 	db	127
   513  0078F5  49                 	db	73
   514  0078F6  49                 	db	73
   515  0078F7  7F                 	db	127
   516  0078F8  36                 	db	54
   517  0078F9  00                 	db	0
   518  0078FA  00                 	db	0
   519  0078FB  06                 	db	6
   520  0078FC  4F                 	db	79
   521  0078FD  49                 	db	73
   522  0078FE  69                 	db	105
   523  0078FF  3F                 	db	63
   524  007900  1E                 	db	30
   525  007901  00                 	db	0
   526  007902  00                 	db	0
   527  007903  00                 	db	0
   528  007904  00                 	db	0
   529  007905  66                 	db	102
   530  007906  66                 	db	102
   531  007907  00                 	db	0
   532  007908  00                 	db	0
   533  007909  00                 	db	0
   534  00790A  00                 	db	0
   535  00790B  00                 	db	0
   536  00790C  80                 	db	128
   537  00790D  E6                 	db	230
   538  00790E  66                 	db	102
   539  00790F  00                 	db	0
   540  007910  00                 	db	0
   541  007911  00                 	db	0
   542  007912  00                 	db	0
   543  007913  08                 	db	8
   544  007914  1C                 	db	28
   545  007915  36                 	db	54
   546  007916  63                 	db	99
   547  007917  41                 	db	65
   548  007918  00                 	db	0
   549  007919  00                 	db	0
   550  00791A  00                 	db	0
   551  00791B  24                 	db	36
   552  00791C  24                 	db	36
   553  00791D  24                 	db	36
   554  00791E  24                 	db	36
   555  00791F  24                 	db	36
   556  007920  24                 	db	36
   557  007921  00                 	db	0
   558  007922  00                 	db	0
   559  007923  00                 	db	0
   560  007924  41                 	db	65
   561  007925  63                 	db	99
   562  007926  36                 	db	54
   563  007927  1C                 	db	28
   564  007928  08                 	db	8
   565  007929  00                 	db	0
   566  00792A  00                 	db	0
   567  00792B  02                 	db	2
   568  00792C  03                 	db	3
   569  00792D  51                 	db	81
   570  00792E  59                 	db	89
   571  00792F  0F                 	db	15
   572  007930  06                 	db	6
   573  007931  00                 	db	0
   574  007932  00                 	db	0
   575  007933  3E                 	db	62
   576  007934  7F                 	db	127
   577  007935  41                 	db	65
   578  007936  5D                 	db	93
   579  007937  5D                 	db	93
   580  007938  1F                 	db	31
   581  007939  1E                 	db	30
   582  00793A  00                 	db	0
   583  00793B  7C                 	db	124
   584  00793C  7E                 	db	126
   585  00793D  13                 	db	19
   586  00793E  13                 	db	19
   587  00793F  7E                 	db	126
   588  007940  7C                 	db	124
   589  007941  00                 	db	0
   590  007942  00                 	db	0
   591  007943  41                 	db	65
   592  007944  7F                 	db	127
   593  007945  7F                 	db	127
   594  007946  49                 	db	73
   595  007947  49                 	db	73
   596  007948  7F                 	db	127
   597  007949  36                 	db	54
   598  00794A  00                 	db	0
   599  00794B  1C                 	db	28
   600  00794C  3E                 	db	62
   601  00794D  63                 	db	99
   602  00794E  41                 	db	65
   603  00794F  41                 	db	65
   604  007950  63                 	db	99
   605  007951  22                 	db	34
   606  007952  00                 	db	0
   607  007953  41                 	db	65
   608  007954  7F                 	db	127
   609  007955  7F                 	db	127
   610  007956  41                 	db	65
   611  007957  63                 	db	99
   612  007958  3E                 	db	62
   613  007959  1C                 	db	28
   614  00795A  00                 	db	0
   615  00795B  41                 	db	65
   616  00795C  7F                 	db	127
   617  00795D  7F                 	db	127
   618  00795E  49                 	db	73
   619  00795F  5D                 	db	93
   620  007960  41                 	db	65
   621  007961  63                 	db	99
   622  007962  00                 	db	0
   623  007963  41                 	db	65
   624  007964  7F                 	db	127
   625  007965  7F                 	db	127
   626  007966  49                 	db	73
   627  007967  1D                 	db	29
   628  007968  01                 	db	1
   629  007969  03                 	db	3
   630  00796A  00                 	db	0
   631  00796B  1C                 	db	28
   632  00796C  3E                 	db	62
   633  00796D  63                 	db	99
   634  00796E  41                 	db	65
   635  00796F  51                 	db	81
   636  007970  73                 	db	115
   637  007971  72                 	db	114
   638  007972  00                 	db	0
   639  007973  7F                 	db	127
   640  007974  7F                 	db	127
   641  007975  08                 	db	8
   642  007976  08                 	db	8
   643  007977  7F                 	db	127
   644  007978  7F                 	db	127
   645  007979  00                 	db	0
   646  00797A  00                 	db	0
   647  00797B  00                 	db	0
   648  00797C  41                 	db	65
   649  00797D  7F                 	db	127
   650  00797E  7F                 	db	127
   651  00797F  41                 	db	65
   652  007980  00                 	db	0
   653  007981  00                 	db	0
   654  007982  00                 	db	0
   655  007983  30                 	db	48
   656  007984  70                 	db	112
   657  007985  40                 	db	64
   658  007986  41                 	db	65
   659  007987  7F                 	db	127
   660  007988  3F                 	db	63
   661  007989  01                 	db	1
   662  00798A  00                 	db	0
   663  00798B  41                 	db	65
   664  00798C  7F                 	db	127
   665  00798D  7F                 	db	127
   666  00798E  08                 	db	8
   667  00798F  1C                 	db	28
   668  007990  77                 	db	119
   669  007991  63                 	db	99
   670  007992  00                 	db	0
   671  007993  41                 	db	65
   672  007994  7F                 	db	127
   673  007995  7F                 	db	127
   674  007996  41                 	db	65
   675  007997  40                 	db	64
   676  007998  60                 	db	96
   677  007999  70                 	db	112
   678  00799A  00                 	db	0
   679  00799B  7F                 	db	127
   680  00799C  7F                 	db	127
   681  00799D  0E                 	db	14
   682  00799E  1C                 	db	28
   683  00799F  0E                 	db	14
   684  0079A0  7F                 	db	127
   685  0079A1  7F                 	db	127
   686  0079A2  00                 	db	0
   687  0079A3  7F                 	db	127
   688  0079A4  7F                 	db	127
   689  0079A5  06                 	db	6
   690  0079A6  0C                 	db	12
   691  0079A7  18                 	db	24
   692  0079A8  7F                 	db	127
   693  0079A9  7F                 	db	127
   694  0079AA  00                 	db	0
   695  0079AB  1C                 	db	28
   696  0079AC  3E                 	db	62
   697  0079AD  63                 	db	99
   698  0079AE  41                 	db	65
   699  0079AF  63                 	db	99
   700  0079B0  3E                 	db	62
   701  0079B1  1C                 	db	28
   702  0079B2  00                 	db	0
   703  0079B3  41                 	db	65
   704  0079B4  7F                 	db	127
   705  0079B5  7F                 	db	127
   706  0079B6  49                 	db	73
   707  0079B7  09                 	db	9
   708  0079B8  0F                 	db	15
   709  0079B9  06                 	db	6
   710  0079BA  00                 	db	0
   711  0079BB  1E                 	db	30
   712  0079BC  3F                 	db	63
   713  0079BD  21                 	db	33
   714  0079BE  71                 	db	113
   715  0079BF  7F                 	db	127
   716  0079C0  5E                 	db	94
   717  0079C1  00                 	db	0
   718  0079C2  00                 	db	0
   719  0079C3  41                 	db	65
   720  0079C4  7F                 	db	127
   721  0079C5  7F                 	db	127
   722  0079C6  09                 	db	9
   723  0079C7  19                 	db	25
   724  0079C8  7F                 	db	127
   725  0079C9  66                 	db	102
   726  0079CA  00                 	db	0
   727  0079CB  26                 	db	38
   728  0079CC  6F                 	db	111
   729  0079CD  4D                 	db	77
   730  0079CE  59                 	db	89
   731  0079CF  73                 	db	115
   732  0079D0  32                 	db	50
   733  0079D1  00                 	db	0
   734  0079D2  00                 	db	0
   735  0079D3  03                 	db	3
   736  0079D4  41                 	db	65
   737  0079D5  7F                 	db	127
   738  0079D6  7F                 	db	127
   739  0079D7  41                 	db	65
   740  0079D8  03                 	db	3
   741  0079D9  00                 	db	0
   742  0079DA  00                 	db	0
   743  0079DB  7F                 	db	127
   744  0079DC  7F                 	db	127
   745  0079DD  40                 	db	64
   746  0079DE  40                 	db	64
   747  0079DF  7F                 	db	127
   748  0079E0  7F                 	db	127
   749  0079E1  00                 	db	0
   750  0079E2  00                 	db	0
   751  0079E3  1F                 	db	31
   752  0079E4  3F                 	db	63
   753  0079E5  60                 	db	96
   754  0079E6  60                 	db	96
   755  0079E7  3F                 	db	63
   756  0079E8  1F                 	db	31
   757  0079E9  00                 	db	0
   758  0079EA  00                 	db	0
   759  0079EB  7F                 	db	127
   760  0079EC  7F                 	db	127
   761  0079ED  30                 	db	48
   762  0079EE  18                 	db	24
   763  0079EF  30                 	db	48
   764  0079F0  7F                 	db	127
   765  0079F1  7F                 	db	127
   766  0079F2  00                 	db	0
   767  0079F3  43                 	db	67
   768  0079F4  67                 	db	103
   769  0079F5  3C                 	db	60
   770  0079F6  18                 	db	24
   771  0079F7  3C                 	db	60
   772  0079F8  67                 	db	103
   773  0079F9  43                 	db	67
   774  0079FA  00                 	db	0
   775  0079FB  07                 	db	7
   776  0079FC  4F                 	db	79
   777  0079FD  78                 	db	120
   778  0079FE  78                 	db	120
   779  0079FF  4F                 	db	79
   780  007A00  07                 	db	7
   781  007A01  00                 	db	0
   782  007A02  00                 	db	0
   783  007A03  47                 	db	71
   784  007A04  63                 	db	99
   785  007A05  71                 	db	113
   786  007A06  59                 	db	89
   787  007A07  4D                 	db	77
   788  007A08  67                 	db	103
   789  007A09  73                 	db	115
   790  007A0A  00                 	db	0
   791  007A0B  00                 	db	0
   792  007A0C  7F                 	db	127
   793  007A0D  7F                 	db	127
   794  007A0E  41                 	db	65
   795  007A0F  41                 	db	65
   796  007A10  00                 	db	0
   797  007A11  00                 	db	0
   798  007A12  00                 	db	0
   799  007A13  01                 	db	1
   800  007A14  03                 	db	3
   801  007A15  06                 	db	6
   802  007A16  0C                 	db	12
   803  007A17  18                 	db	24
   804  007A18  30                 	db	48
   805  007A19  60                 	db	96
   806  007A1A  00                 	db	0
   807  007A1B  00                 	db	0
   808  007A1C  41                 	db	65
   809  007A1D  41                 	db	65
   810  007A1E  7F                 	db	127
   811  007A1F  7F                 	db	127
   812  007A20  00                 	db	0
   813  007A21  00                 	db	0
   814  007A22  00                 	db	0
   815  007A23  08                 	db	8
   816  007A24  0C                 	db	12
   817  007A25  06                 	db	6
   818  007A26  03                 	db	3
   819  007A27  06                 	db	6
   820  007A28  0C                 	db	12
   821  007A29  08                 	db	8
   822  007A2A  00                 	db	0
   823  007A2B  80                 	db	128
   824  007A2C  80                 	db	128
   825  007A2D  80                 	db	128
   826  007A2E  80                 	db	128
   827  007A2F  80                 	db	128
   828  007A30  80                 	db	128
   829  007A31  80                 	db	128
   830  007A32  80                 	db	128
   831  007A33  00                 	db	0
   832  007A34  00                 	db	0
   833  007A35  03                 	db	3
   834  007A36  07                 	db	7
   835  007A37  04                 	db	4
   836  007A38  00                 	db	0
   837  007A39  00                 	db	0
   838  007A3A  00                 	db	0
   839  007A3B  20                 	db	32
   840  007A3C  74                 	db	116
   841  007A3D  54                 	db	84
   842  007A3E  54                 	db	84
   843  007A3F  3C                 	db	60
   844  007A40  78                 	db	120
   845  007A41  40                 	db	64
   846  007A42  00                 	db	0
   847  007A43  41                 	db	65
   848  007A44  7F                 	db	127
   849  007A45  3F                 	db	63
   850  007A46  48                 	db	72
   851  007A47  48                 	db	72
   852  007A48  78                 	db	120
   853  007A49  30                 	db	48
   854  007A4A  00                 	db	0
   855  007A4B  38                 	db	56
   856  007A4C  7C                 	db	124
   857  007A4D  44                 	db	68
   858  007A4E  44                 	db	68
   859  007A4F  6C                 	db	108
   860  007A50  28                 	db	40
   861  007A51  00                 	db	0
   862  007A52  00                 	db	0
   863  007A53  30                 	db	48
   864  007A54  78                 	db	120
   865  007A55  48                 	db	72
   866  007A56  49                 	db	73
   867  007A57  3F                 	db	63
   868  007A58  7F                 	db	127
   869  007A59  40                 	db	64
   870  007A5A  00                 	db	0
   871  007A5B  38                 	db	56
   872  007A5C  7C                 	db	124
   873  007A5D  54                 	db	84
   874  007A5E  54                 	db	84
   875  007A5F  5C                 	db	92
   876  007A60  18                 	db	24
   877  007A61  00                 	db	0
   878  007A62  00                 	db	0
   879  007A63  48                 	db	72
   880  007A64  7E                 	db	126
   881  007A65  7F                 	db	127
   882  007A66  49                 	db	73
   883  007A67  03                 	db	3
   884  007A68  02                 	db	2
   885  007A69  00                 	db	0
   886  007A6A  00                 	db	0
   887  007A6B  98                 	db	152
   888  007A6C  BC                 	db	188
   889  007A6D  A4                 	db	164
   890  007A6E  A4                 	db	164
   891  007A6F  F8                 	db	248
   892  007A70  7C                 	db	124
   893  007A71  04                 	db	4
   894  007A72  00                 	db	0
   895  007A73  41                 	db	65
   896  007A74  7F                 	db	127
   897  007A75  7F                 	db	127
   898  007A76  08                 	db	8
   899  007A77  04                 	db	4
   900  007A78  7C                 	db	124
   901  007A79  78                 	db	120
   902  007A7A  00                 	db	0
   903  007A7B  00                 	db	0
   904  007A7C  44                 	db	68
   905  007A7D  7D                 	db	125
   906  007A7E  7D                 	db	125
   907  007A7F  40                 	db	64
   908  007A80  00                 	db	0
   909  007A81  00                 	db	0
   910  007A82  00                 	db	0
   911  007A83  60                 	db	96
   912  007A84  E0                 	db	224
   913  007A85  80                 	db	128
   914  007A86  80                 	db	128
   915  007A87  FD                 	db	253
   916  007A88  7D                 	db	125
   917  007A89  00                 	db	0
   918  007A8A  00                 	db	0
   919  007A8B  41                 	db	65
   920  007A8C  7F                 	db	127
   921  007A8D  7F                 	db	127
   922  007A8E  10                 	db	16
   923  007A8F  38                 	db	56
   924  007A90  6C                 	db	108
   925  007A91  44                 	db	68
   926  007A92  00                 	db	0
   927  007A93  00                 	db	0
   928  007A94  41                 	db	65
   929  007A95  7F                 	db	127
   930  007A96  7F                 	db	127
   931  007A97  40                 	db	64
   932  007A98  00                 	db	0
   933  007A99  00                 	db	0
   934  007A9A  00                 	db	0
   935  007A9B  7C                 	db	124
   936  007A9C  7C                 	db	124
   937  007A9D  18                 	db	24
   938  007A9E  38                 	db	56
   939  007A9F  1C                 	db	28
   940  007AA0  7C                 	db	124
   941  007AA1  78                 	db	120
   942  007AA2  00                 	db	0
   943  007AA3  7C                 	db	124
   944  007AA4  7C                 	db	124
   945  007AA5  04                 	db	4
   946  007AA6  04                 	db	4
   947  007AA7  7C                 	db	124
   948  007AA8  78                 	db	120
   949  007AA9  00                 	db	0
   950  007AAA  00                 	db	0
   951  007AAB  38                 	db	56
   952  007AAC  7C                 	db	124
   953  007AAD  44                 	db	68
   954  007AAE  44                 	db	68
   955  007AAF  7C                 	db	124
   956  007AB0  38                 	db	56
   957  007AB1  00                 	db	0
   958  007AB2  00                 	db	0
   959  007AB3  84                 	db	132
   960  007AB4  FC                 	db	252
   961  007AB5  F8                 	db	248
   962  007AB6  A4                 	db	164
   963  007AB7  24                 	db	36
   964  007AB8  3C                 	db	60
   965  007AB9  18                 	db	24
   966  007ABA  00                 	db	0
   967  007ABB  18                 	db	24
   968  007ABC  3C                 	db	60
   969  007ABD  24                 	db	36
   970  007ABE  A4                 	db	164
   971  007ABF  F8                 	db	248
   972  007AC0  FC                 	db	252
   973  007AC1  84                 	db	132
   974  007AC2  00                 	db	0
   975  007AC3  44                 	db	68
   976  007AC4  7C                 	db	124
   977  007AC5  78                 	db	120
   978  007AC6  4C                 	db	76
   979  007AC7  04                 	db	4
   980  007AC8  1C                 	db	28
   981  007AC9  18                 	db	24
   982  007ACA  00                 	db	0
   983  007ACB  48                 	db	72
   984  007ACC  5C                 	db	92
   985  007ACD  54                 	db	84
   986  007ACE  54                 	db	84
   987  007ACF  74                 	db	116
   988  007AD0  24                 	db	36
   989  007AD1  00                 	db	0
   990  007AD2  00                 	db	0
   991  007AD3  00                 	db	0
   992  007AD4  04                 	db	4
   993  007AD5  3E                 	db	62
   994  007AD6  7F                 	db	127
   995  007AD7  44                 	db	68
   996  007AD8  24                 	db	36
   997  007AD9  00                 	db	0
   998  007ADA  00                 	db	0
   999  007ADB  3C                 	db	60
  1000  007ADC  7C                 	db	124
  1001  007ADD  40                 	db	64
  1002  007ADE  40                 	db	64
  1003  007ADF  3C                 	db	60
  1004  007AE0  7C                 	db	124
  1005  007AE1  40                 	db	64
  1006  007AE2  00                 	db	0
  1007  007AE3  1C                 	db	28
  1008  007AE4  3C                 	db	60
  1009  007AE5  60                 	db	96
  1010  007AE6  60                 	db	96
  1011  007AE7  3C                 	db	60
  1012  007AE8  1C                 	db	28
  1013  007AE9  00                 	db	0
  1014  007AEA  00                 	db	0
  1015  007AEB  3C                 	db	60
  1016  007AEC  7C                 	db	124
  1017  007AED  70                 	db	112
  1018  007AEE  38                 	db	56
  1019  007AEF  70                 	db	112
  1020  007AF0  7C                 	db	124
  1021  007AF1  3C                 	db	60
  1022  007AF2  00                 	db	0
  1023  007AF3  44                 	db	68
  1024  007AF4  6C                 	db	108
  1025  007AF5  38                 	db	56
  1026  007AF6  10                 	db	16
  1027  007AF7  38                 	db	56
  1028  007AF8  6C                 	db	108
  1029  007AF9  44                 	db	68
  1030  007AFA  00                 	db	0
  1031  007AFB  9C                 	db	156
  1032  007AFC  BC                 	db	188
  1033  007AFD  A0                 	db	160
  1034  007AFE  A0                 	db	160
  1035  007AFF  FC                 	db	252
  1036  007B00  7C                 	db	124
  1037  007B01  00                 	db	0
  1038  007B02  00                 	db	0
  1039  007B03  4C                 	db	76
  1040  007B04  64                 	db	100
  1041  007B05  74                 	db	116
  1042  007B06  5C                 	db	92
  1043  007B07  4C                 	db	76
  1044  007B08  64                 	db	100
  1045  007B09  00                 	db	0
  1046  007B0A  00                 	db	0
  1047  007B0B  08                 	db	8
  1048  007B0C  08                 	db	8
  1049  007B0D  3E                 	db	62
  1050  007B0E  77                 	db	119
  1051  007B0F  41                 	db	65
  1052  007B10  41                 	db	65
  1053  007B11  00                 	db	0
  1054  007B12  00                 	db	0
  1055  007B13  00                 	db	0
  1056  007B14  00                 	db	0
  1057  007B15  00                 	db	0
  1058  007B16  77                 	db	119
  1059  007B17  77                 	db	119
  1060  007B18  00                 	db	0
  1061  007B19  00                 	db	0
  1062  007B1A  00                 	db	0
  1063  007B1B  41                 	db	65
  1064  007B1C  41                 	db	65
  1065  007B1D  77                 	db	119
  1066  007B1E  3E                 	db	62
  1067  007B1F  08                 	db	8
  1068  007B20  08                 	db	8
  1069  007B21  00                 	db	0
  1070  007B22  00                 	db	0
  1071  007B23  02                 	db	2
  1072  007B24  03                 	db	3
  1073  007B25  01                 	db	1
  1074  007B26  03                 	db	3
  1075  007B27  02                 	db	2
  1076  007B28  03                 	db	3
  1077  007B29  01                 	db	1
  1078  007B2A  00                 	db	0
  1079  007B2B  70                 	db	112
  1080  007B2C  78                 	db	120
  1081  007B2D  4C                 	db	76
  1082  007B2E  46                 	db	70
  1083  007B2F  4C                 	db	76
  1084  007B30  78                 	db	120
  1085  007B31  70                 	db	112
  1086  007B32  00                 	db	0
  1087  007B33  0E                 	db	14
  1088  007B34  9F                 	db	159
  1089  007B35  91                 	db	145
  1090  007B36  B1                 	db	177
  1091  007B37  FB                 	db	251
  1092  007B38  4A                 	db	74
  1093  007B39  00                 	db	0
  1094  007B3A  00                 	db	0
  1095  007B3B  3A                 	db	58
  1096  007B3C  7A                 	db	122
  1097  007B3D  40                 	db	64
  1098  007B3E  40                 	db	64
  1099  007B3F  7A                 	db	122
  1100  007B40  7A                 	db	122
  1101  007B41  40                 	db	64
  1102  007B42  00                 	db	0
  1103  007B43  38                 	db	56
  1104  007B44  7C                 	db	124
  1105  007B45  54                 	db	84
  1106  007B46  55                 	db	85
  1107  007B47  5D                 	db	93
  1108  007B48  19                 	db	25
  1109  007B49  00                 	db	0
  1110  007B4A  00                 	db	0
  1111  007B4B  02                 	db	2
  1112  007B4C  23                 	db	35
  1113  007B4D  75                 	db	117
  1114  007B4E  55                 	db	85
  1115  007B4F  55                 	db	85
  1116  007B50  7D                 	db	125
  1117  007B51  7B                 	db	123
  1118  007B52  42                 	db	66
  1119  007B53  21                 	db	33
  1120  007B54  75                 	db	117
  1121  007B55  54                 	db	84
  1122  007B56  54                 	db	84
  1123  007B57  7D                 	db	125
  1124  007B58  79                 	db	121
  1125  007B59  40                 	db	64
  1126  007B5A  00                 	db	0
  1127  007B5B  21                 	db	33
  1128  007B5C  75                 	db	117
  1129  007B5D  55                 	db	85
  1130  007B5E  54                 	db	84
  1131  007B5F  7C                 	db	124
  1132  007B60  78                 	db	120
  1133  007B61  40                 	db	64
  1134  007B62  00                 	db	0
  1135  007B63  20                 	db	32
  1136  007B64  74                 	db	116
  1137  007B65  57                 	db	87
  1138  007B66  57                 	db	87
  1139  007B67  7C                 	db	124
  1140  007B68  78                 	db	120
  1141  007B69  40                 	db	64
  1142  007B6A  00                 	db	0
  1143  007B6B  18                 	db	24
  1144  007B6C  3C                 	db	60
  1145  007B6D  A4                 	db	164
  1146  007B6E  A4                 	db	164
  1147  007B6F  E4                 	db	228
  1148  007B70  40                 	db	64
  1149  007B71  00                 	db	0
  1150  007B72  00                 	db	0
  1151  007B73  02                 	db	2
  1152  007B74  3B                 	db	59
  1153  007B75  7D                 	db	125
  1154  007B76  55                 	db	85
  1155  007B77  55                 	db	85
  1156  007B78  5D                 	db	93
  1157  007B79  1B                 	db	27
  1158  007B7A  02                 	db	2
  1159  007B7B  39                 	db	57
  1160  007B7C  7D                 	db	125
  1161  007B7D  54                 	db	84
  1162  007B7E  54                 	db	84
  1163  007B7F  5D                 	db	93
  1164  007B80  19                 	db	25
  1165  007B81  00                 	db	0
  1166  007B82  00                 	db	0
  1167  007B83  39                 	db	57
  1168  007B84  7D                 	db	125
  1169  007B85  55                 	db	85
  1170  007B86  54                 	db	84
  1171  007B87  5C                 	db	92
  1172  007B88  18                 	db	24
  1173  007B89  00                 	db	0
  1174  007B8A  00                 	db	0
  1175  007B8B  01                 	db	1
  1176  007B8C  45                 	db	69
  1177  007B8D  7C                 	db	124
  1178  007B8E  7C                 	db	124
  1179  007B8F  41                 	db	65
  1180  007B90  01                 	db	1
  1181  007B91  00                 	db	0
  1182  007B92  00                 	db	0
  1183  007B93  02                 	db	2
  1184  007B94  03                 	db	3
  1185  007B95  45                 	db	69
  1186  007B96  7D                 	db	125
  1187  007B97  7D                 	db	125
  1188  007B98  43                 	db	67
  1189  007B99  02                 	db	2
  1190  007B9A  00                 	db	0
  1191  007B9B  01                 	db	1
  1192  007B9C  45                 	db	69
  1193  007B9D  7D                 	db	125
  1194  007B9E  7C                 	db	124
  1195  007B9F  40                 	db	64
  1196  007BA0  00                 	db	0
  1197  007BA1  00                 	db	0
  1198  007BA2  00                 	db	0
  1199  007BA3  79                 	db	121
  1200  007BA4  7D                 	db	125
  1201  007BA5  16                 	db	22
  1202  007BA6  12                 	db	18
  1203  007BA7  16                 	db	22
  1204  007BA8  7D                 	db	125
  1205  007BA9  79                 	db	121
  1206  007BAA  00                 	db	0
  1207  007BAB  70                 	db	112
  1208  007BAC  78                 	db	120
  1209  007BAD  2B                 	db	43
  1210  007BAE  2B                 	db	43
  1211  007BAF  78                 	db	120
  1212  007BB0  70                 	db	112
  1213  007BB1  00                 	db	0
  1214  007BB2  00                 	db	0
  1215  007BB3  44                 	db	68
  1216  007BB4  7C                 	db	124
  1217  007BB5  7C                 	db	124
  1218  007BB6  55                 	db	85
  1219  007BB7  55                 	db	85
  1220  007BB8  45                 	db	69
  1221  007BB9  00                 	db	0
  1222  007BBA  00                 	db	0
  1223  007BBB  20                 	db	32
  1224  007BBC  74                 	db	116
  1225  007BBD  54                 	db	84
  1226  007BBE  54                 	db	84
  1227  007BBF  7C                 	db	124
  1228  007BC0  7C                 	db	124
  1229  007BC1  54                 	db	84
  1230  007BC2  54                 	db	84
  1231  007BC3  7C                 	db	124
  1232  007BC4  7E                 	db	126
  1233  007BC5  0B                 	db	11
  1234  007BC6  09                 	db	9
  1235  007BC7  7F                 	db	127
  1236  007BC8  7F                 	db	127
  1237  007BC9  49                 	db	73
  1238  007BCA  00                 	db	0
  1239  007BCB  32                 	db	50
  1240  007BCC  7B                 	db	123
  1241  007BCD  49                 	db	73
  1242  007BCE  49                 	db	73
  1243  007BCF  7B                 	db	123
  1244  007BD0  32                 	db	50
  1245  007BD1  00                 	db	0
  1246  007BD2  00                 	db	0
  1247  007BD3  32                 	db	50
  1248  007BD4  7A                 	db	122
  1249  007BD5  48                 	db	72
  1250  007BD6  48                 	db	72
  1251  007BD7  7A                 	db	122
  1252  007BD8  32                 	db	50
  1253  007BD9  00                 	db	0
  1254  007BDA  00                 	db	0
  1255  007BDB  32                 	db	50
  1256  007BDC  7A                 	db	122
  1257  007BDD  4A                 	db	74
  1258  007BDE  48                 	db	72
  1259  007BDF  78                 	db	120
  1260  007BE0  30                 	db	48
  1261  007BE1  00                 	db	0
  1262  007BE2  00                 	db	0
  1263  007BE3  3A                 	db	58
  1264  007BE4  7B                 	db	123
  1265  007BE5  41                 	db	65
  1266  007BE6  41                 	db	65
  1267  007BE7  7B                 	db	123
  1268  007BE8  7A                 	db	122
  1269  007BE9  40                 	db	64
  1270  007BEA  00                 	db	0
  1271  007BEB  3A                 	db	58
  1272  007BEC  7A                 	db	122
  1273  007BED  42                 	db	66
  1274  007BEE  40                 	db	64
  1275  007BEF  78                 	db	120
  1276  007BF0  78                 	db	120
  1277  007BF1  40                 	db	64
  1278  007BF2  00                 	db	0
  1279  007BF3  9A                 	db	154
  1280  007BF4  BA                 	db	186
  1281  007BF5  A0                 	db	160
  1282  007BF6  A0                 	db	160
  1283  007BF7  FA                 	db	250
  1284  007BF8  7A                 	db	122
  1285  007BF9  00                 	db	0
  1286  007BFA  00                 	db	0
  1287  007BFB  01                 	db	1
  1288  007BFC  19                 	db	25
  1289  007BFD  3C                 	db	60
  1290  007BFE  66                 	db	102
  1291  007BFF  66                 	db	102
  1292  007C00  3C                 	db	60
  1293  007C01  19                 	db	25
  1294  007C02  01                 	db	1
  1295  007C03  3D                 	db	61
  1296  007C04  7D                 	db	125
  1297  007C05  40                 	db	64
  1298  007C06  40                 	db	64
  1299  007C07  7D                 	db	125
  1300  007C08  3D                 	db	61
  1301  007C09  00                 	db	0
  1302  007C0A  00                 	db	0
  1303  007C0B  18                 	db	24
  1304  007C0C  3C                 	db	60
  1305  007C0D  24                 	db	36
  1306  007C0E  E7                 	db	231
  1307  007C0F  E7                 	db	231
  1308  007C10  24                 	db	36
  1309  007C11  24                 	db	36
  1310  007C12  00                 	db	0
  1311  007C13  68                 	db	104
  1312  007C14  7E                 	db	126
  1313  007C15  7F                 	db	127
  1314  007C16  49                 	db	73
  1315  007C17  43                 	db	67
  1316  007C18  66                 	db	102
  1317  007C19  20                 	db	32
  1318  007C1A  00                 	db	0
  1319  007C1B  2B                 	db	43
  1320  007C1C  2F                 	db	47
  1321  007C1D  FC                 	db	252
  1322  007C1E  FC                 	db	252
  1323  007C1F  2F                 	db	47
  1324  007C20  2B                 	db	43
  1325  007C21  00                 	db	0
  1326  007C22  00                 	db	0
  1327  007C23  FF                 	db	255
  1328  007C24  FF                 	db	255
  1329  007C25  09                 	db	9
  1330  007C26  09                 	db	9
  1331  007C27  2F                 	db	47
  1332  007C28  F6                 	db	246
  1333  007C29  F8                 	db	248
  1334  007C2A  A0                 	db	160
  1335  007C2B  40                 	db	64
  1336  007C2C  C0                 	db	192
  1337  007C2D  88                 	db	136
  1338  007C2E  FE                 	db	254
  1339  007C2F  7F                 	db	127
  1340  007C30  09                 	db	9
  1341  007C31  03                 	db	3
  1342  007C32  02                 	db	2
  1343  007C33  20                 	db	32
  1344  007C34  74                 	db	116
  1345  007C35  54                 	db	84
  1346  007C36  55                 	db	85
  1347  007C37  7D                 	db	125
  1348  007C38  79                 	db	121
  1349  007C39  40                 	db	64
  1350  007C3A  00                 	db	0
  1351  007C3B  00                 	db	0
  1352  007C3C  44                 	db	68
  1353  007C3D  7D                 	db	125
  1354  007C3E  7D                 	db	125
  1355  007C3F  41                 	db	65
  1356  007C40  00                 	db	0
  1357  007C41  00                 	db	0
  1358  007C42  00                 	db	0
  1359  007C43  30                 	db	48
  1360  007C44  78                 	db	120
  1361  007C45  48                 	db	72
  1362  007C46  4A                 	db	74
  1363  007C47  7A                 	db	122
  1364  007C48  32                 	db	50
  1365  007C49  00                 	db	0
  1366  007C4A  00                 	db	0
  1367  007C4B  38                 	db	56
  1368  007C4C  78                 	db	120
  1369  007C4D  40                 	db	64
  1370  007C4E  42                 	db	66
  1371  007C4F  7A                 	db	122
  1372  007C50  7A                 	db	122
  1373  007C51  40                 	db	64
  1374  007C52  00                 	db	0
  1375  007C53  7A                 	db	122
  1376  007C54  7A                 	db	122
  1377  007C55  0A                 	db	10
  1378  007C56  0A                 	db	10
  1379  007C57  7A                 	db	122
  1380  007C58  70                 	db	112
  1381  007C59  00                 	db	0
  1382  007C5A  00                 	db	0
  1383  007C5B  7D                 	db	125
  1384  007C5C  7D                 	db	125
  1385  007C5D  19                 	db	25
  1386  007C5E  31                 	db	49
  1387  007C5F  7D                 	db	125
  1388  007C60  7D                 	db	125
  1389  007C61  00                 	db	0
  1390  007C62  00                 	db	0
  1391  007C63  00                 	db	0
  1392  007C64  26                 	db	38
  1393  007C65  2F                 	db	47
  1394  007C66  29                 	db	41
  1395  007C67  2F                 	db	47
  1396  007C68  2F                 	db	47
  1397  007C69  28                 	db	40
  1398  007C6A  00                 	db	0
  1399  007C6B  00                 	db	0
  1400  007C6C  26                 	db	38
  1401  007C6D  2F                 	db	47
  1402  007C6E  29                 	db	41
  1403  007C6F  2F                 	db	47
  1404  007C70  26                 	db	38
  1405  007C71  00                 	db	0
  1406  007C72  00                 	db	0
  1407  007C73  30                 	db	48
  1408  007C74  78                 	db	120
  1409  007C75  4D                 	db	77
  1410  007C76  45                 	db	69
  1411  007C77  60                 	db	96
  1412  007C78  20                 	db	32
  1413  007C79  00                 	db	0
  1414  007C7A  00                 	db	0
  1415  007C7B  38                 	db	56
  1416  007C7C  38                 	db	56
  1417  007C7D  08                 	db	8
  1418  007C7E  08                 	db	8
  1419  007C7F  08                 	db	8
  1420  007C80  08                 	db	8
  1421  007C81  00                 	db	0
  1422  007C82  00                 	db	0
  1423  007C83  08                 	db	8
  1424  007C84  08                 	db	8
  1425  007C85  08                 	db	8
  1426  007C86  08                 	db	8
  1427  007C87  38                 	db	56
  1428  007C88  38                 	db	56
  1429  007C89  00                 	db	0
  1430  007C8A  00                 	db	0
  1431  007C8B  4F                 	db	79
  1432  007C8C  6F                 	db	111
  1433  007C8D  30                 	db	48
  1434  007C8E  18                 	db	24
  1435  007C8F  CC                 	db	204
  1436  007C90  EE                 	db	238
  1437  007C91  BB                 	db	187
  1438  007C92  91                 	db	145
  1439  007C93  4F                 	db	79
  1440  007C94  6F                 	db	111
  1441  007C95  30                 	db	48
  1442  007C96  18                 	db	24
  1443  007C97  6C                 	db	108
  1444  007C98  76                 	db	118
  1445  007C99  FB                 	db	251
  1446  007C9A  F9                 	db	249
  1447  007C9B  00                 	db	0
  1448  007C9C  00                 	db	0
  1449  007C9D  00                 	db	0
  1450  007C9E  7B                 	db	123
  1451  007C9F  7B                 	db	123
  1452  007CA0  00                 	db	0
  1453  007CA1  00                 	db	0
  1454  007CA2  00                 	db	0
  1455  007CA3  08                 	db	8
  1456  007CA4  1C                 	db	28
  1457  007CA5  36                 	db	54
  1458  007CA6  22                 	db	34
  1459  007CA7  08                 	db	8
  1460  007CA8  1C                 	db	28
  1461  007CA9  36                 	db	54
  1462  007CAA  22                 	db	34
  1463  007CAB  22                 	db	34
  1464  007CAC  36                 	db	54
  1465  007CAD  1C                 	db	28
  1466  007CAE  08                 	db	8
  1467  007CAF  22                 	db	34
  1468  007CB0  36                 	db	54
  1469  007CB1  1C                 	db	28
  1470  007CB2  08                 	db	8
  1471  007CB3  AA                 	db	170
  1472  007CB4  00                 	db	0
  1473  007CB5  55                 	db	85
  1474  007CB6  00                 	db	0
  1475  007CB7  AA                 	db	170
  1476  007CB8  00                 	db	0
  1477  007CB9  55                 	db	85
  1478  007CBA  00                 	db	0
  1479  007CBB  AA                 	db	170
  1480  007CBC  55                 	db	85
  1481  007CBD  AA                 	db	170
  1482  007CBE  55                 	db	85
  1483  007CBF  AA                 	db	170
  1484  007CC0  55                 	db	85
  1485  007CC1  AA                 	db	170
  1486  007CC2  55                 	db	85
  1487  007CC3  DD                 	db	221
  1488  007CC4  FF                 	db	255
  1489  007CC5  AA                 	db	170
  1490  007CC6  77                 	db	119
  1491  007CC7  DD                 	db	221
  1492  007CC8  AA                 	db	170
  1493  007CC9  FF                 	db	255
  1494  007CCA  77                 	db	119
  1495  007CCB  00                 	db	0
  1496  007CCC  00                 	db	0
  1497  007CCD  00                 	db	0
  1498  007CCE  FF                 	db	255
  1499  007CCF  FF                 	db	255
  1500  007CD0  00                 	db	0
  1501  007CD1  00                 	db	0
  1502  007CD2  00                 	db	0
  1503  007CD3  10                 	db	16
  1504  007CD4  10                 	db	16
  1505  007CD5  10                 	db	16
  1506  007CD6  FF                 	db	255
  1507  007CD7  FF                 	db	255
  1508  007CD8  00                 	db	0
  1509  007CD9  00                 	db	0
  1510  007CDA  00                 	db	0
  1511  007CDB  14                 	db	20
  1512  007CDC  14                 	db	20
  1513  007CDD  14                 	db	20
  1514  007CDE  FF                 	db	255
  1515  007CDF  FF                 	db	255
  1516  007CE0  00                 	db	0
  1517  007CE1  00                 	db	0
  1518  007CE2  00                 	db	0
  1519  007CE3  10                 	db	16
  1520  007CE4  10                 	db	16
  1521  007CE5  FF                 	db	255
  1522  007CE6  FF                 	db	255
  1523  007CE7  00                 	db	0
  1524  007CE8  FF                 	db	255
  1525  007CE9  FF                 	db	255
  1526  007CEA  00                 	db	0
  1527  007CEB  10                 	db	16
  1528  007CEC  10                 	db	16
  1529  007CED  F0                 	db	240
  1530  007CEE  F0                 	db	240
  1531  007CEF  10                 	db	16
  1532  007CF0  F0                 	db	240
  1533  007CF1  F0                 	db	240
  1534  007CF2  00                 	db	0
  1535  007CF3  14                 	db	20
  1536  007CF4  14                 	db	20
  1537  007CF5  14                 	db	20
  1538  007CF6  FC                 	db	252
  1539  007CF7  FC                 	db	252
  1540  007CF8  00                 	db	0
  1541  007CF9  00                 	db	0
  1542  007CFA  00                 	db	0
  1543  007CFB  14                 	db	20
  1544  007CFC  14                 	db	20
  1545  007CFD  F7                 	db	247
  1546  007CFE  F7                 	db	247
  1547  007CFF  00                 	db	0
  1548  007D00  FF                 	db	255
  1549  007D01  FF                 	db	255
  1550  007D02  00                 	db	0
  1551  007D03  00                 	db	0
  1552  007D04  00                 	db	0
  1553  007D05  FF                 	db	255
  1554  007D06  FF                 	db	255
  1555  007D07  00                 	db	0
  1556  007D08  FF                 	db	255
  1557  007D09  FF                 	db	255
  1558  007D0A  00                 	db	0
  1559  007D0B  14                 	db	20
  1560  007D0C  14                 	db	20
  1561  007D0D  F4                 	db	244
  1562  007D0E  F4                 	db	244
  1563  007D0F  04                 	db	4
  1564  007D10  FC                 	db	252
  1565  007D11  FC                 	db	252
  1566  007D12  00                 	db	0
  1567  007D13  14                 	db	20
  1568  007D14  14                 	db	20
  1569  007D15  17                 	db	23
  1570  007D16  17                 	db	23
  1571  007D17  10                 	db	16
  1572  007D18  1F                 	db	31
  1573  007D19  1F                 	db	31
  1574  007D1A  00                 	db	0
  1575  007D1B  10                 	db	16
  1576  007D1C  10                 	db	16
  1577  007D1D  1F                 	db	31
  1578  007D1E  1F                 	db	31
  1579  007D1F  10                 	db	16
  1580  007D20  1F                 	db	31
  1581  007D21  1F                 	db	31
  1582  007D22  00                 	db	0
  1583  007D23  14                 	db	20
  1584  007D24  14                 	db	20
  1585  007D25  14                 	db	20
  1586  007D26  1F                 	db	31
  1587  007D27  1F                 	db	31
  1588  007D28  00                 	db	0
  1589  007D29  00                 	db	0
  1590  007D2A  00                 	db	0
  1591  007D2B  10                 	db	16
  1592  007D2C  10                 	db	16
  1593  007D2D  10                 	db	16
  1594  007D2E  F0                 	db	240
  1595  007D2F  F0                 	db	240
  1596  007D30  00                 	db	0
  1597  007D31  00                 	db	0
  1598  007D32  00                 	db	0
  1599  007D33  00                 	db	0
  1600  007D34  00                 	db	0
  1601  007D35  00                 	db	0
  1602  007D36  1F                 	db	31
  1603  007D37  1F                 	db	31
  1604  007D38  10                 	db	16
  1605  007D39  10                 	db	16
  1606  007D3A  10                 	db	16
  1607  007D3B  10                 	db	16
  1608  007D3C  10                 	db	16
  1609  007D3D  10                 	db	16
  1610  007D3E  1F                 	db	31
  1611  007D3F  1F                 	db	31
  1612  007D40  10                 	db	16
  1613  007D41  10                 	db	16
  1614  007D42  10                 	db	16
  1615  007D43  10                 	db	16
  1616  007D44  10                 	db	16
  1617  007D45  10                 	db	16
  1618  007D46  F0                 	db	240
  1619  007D47  F0                 	db	240
  1620  007D48  10                 	db	16
  1621  007D49  10                 	db	16
  1622  007D4A  10                 	db	16
  1623  007D4B  00                 	db	0
  1624  007D4C  00                 	db	0
  1625  007D4D  00                 	db	0
  1626  007D4E  FF                 	db	255
  1627  007D4F  FF                 	db	255
  1628  007D50  10                 	db	16
  1629  007D51  10                 	db	16
  1630  007D52  10                 	db	16
  1631  007D53  10                 	db	16
  1632  007D54  10                 	db	16
  1633  007D55  10                 	db	16
  1634  007D56  10                 	db	16
  1635  007D57  10                 	db	16
  1636  007D58  10                 	db	16
  1637  007D59  10                 	db	16
  1638  007D5A  10                 	db	16
  1639  007D5B  10                 	db	16
  1640  007D5C  10                 	db	16
  1641  007D5D  10                 	db	16
  1642  007D5E  FF                 	db	255
  1643  007D5F  FF                 	db	255
  1644  007D60  10                 	db	16
  1645  007D61  10                 	db	16
  1646  007D62  10                 	db	16
  1647  007D63  00                 	db	0
  1648  007D64  00                 	db	0
  1649  007D65  00                 	db	0
  1650  007D66  FF                 	db	255
  1651  007D67  FF                 	db	255
  1652  007D68  14                 	db	20
  1653  007D69  14                 	db	20
  1654  007D6A  14                 	db	20
  1655  007D6B  00                 	db	0
  1656  007D6C  00                 	db	0
  1657  007D6D  FF                 	db	255
  1658  007D6E  FF                 	db	255
  1659  007D6F  00                 	db	0
  1660  007D70  FF                 	db	255
  1661  007D71  FF                 	db	255
  1662  007D72  10                 	db	16
  1663  007D73  00                 	db	0
  1664  007D74  00                 	db	0
  1665  007D75  1F                 	db	31
  1666  007D76  1F                 	db	31
  1667  007D77  10                 	db	16
  1668  007D78  17                 	db	23
  1669  007D79  17                 	db	23
  1670  007D7A  14                 	db	20
  1671  007D7B  00                 	db	0
  1672  007D7C  00                 	db	0
  1673  007D7D  FC                 	db	252
  1674  007D7E  FC                 	db	252
  1675  007D7F  04                 	db	4
  1676  007D80  F4                 	db	244
  1677  007D81  F4                 	db	244
  1678  007D82  14                 	db	20
  1679  007D83  14                 	db	20
  1680  007D84  14                 	db	20
  1681  007D85  17                 	db	23
  1682  007D86  17                 	db	23
  1683  007D87  10                 	db	16
  1684  007D88  17                 	db	23
  1685  007D89  17                 	db	23
  1686  007D8A  14                 	db	20
  1687  007D8B  14                 	db	20
  1688  007D8C  14                 	db	20
  1689  007D8D  F4                 	db	244
  1690  007D8E  F4                 	db	244
  1691  007D8F  04                 	db	4
  1692  007D90  F4                 	db	244
  1693  007D91  F4                 	db	244
  1694  007D92  14                 	db	20
  1695  007D93  00                 	db	0
  1696  007D94  00                 	db	0
  1697  007D95  FF                 	db	255
  1698  007D96  FF                 	db	255
  1699  007D97  00                 	db	0
  1700  007D98  F7                 	db	247
  1701  007D99  F7                 	db	247
  1702  007D9A  14                 	db	20
  1703  007D9B  14                 	db	20
  1704  007D9C  14                 	db	20
  1705  007D9D  14                 	db	20
  1706  007D9E  14                 	db	20
  1707  007D9F  14                 	db	20
  1708  007DA0  14                 	db	20
  1709  007DA1  14                 	db	20
  1710  007DA2  14                 	db	20
  1711  007DA3  14                 	db	20
  1712  007DA4  14                 	db	20
  1713  007DA5  F7                 	db	247
  1714  007DA6  F7                 	db	247
  1715  007DA7  00                 	db	0
  1716  007DA8  F7                 	db	247
  1717  007DA9  F7                 	db	247
  1718  007DAA  14                 	db	20
  1719  007DAB  14                 	db	20
  1720  007DAC  14                 	db	20
  1721  007DAD  14                 	db	20
  1722  007DAE  17                 	db	23
  1723  007DAF  17                 	db	23
  1724  007DB0  14                 	db	20
  1725  007DB1  14                 	db	20
  1726  007DB2  14                 	db	20
  1727  007DB3  10                 	db	16
  1728  007DB4  10                 	db	16
  1729  007DB5  1F                 	db	31
  1730  007DB6  1F                 	db	31
  1731  007DB7  10                 	db	16
  1732  007DB8  1F                 	db	31
  1733  007DB9  1F                 	db	31
  1734  007DBA  10                 	db	16
  1735  007DBB  14                 	db	20
  1736  007DBC  14                 	db	20
  1737  007DBD  14                 	db	20
  1738  007DBE  F4                 	db	244
  1739  007DBF  F4                 	db	244
  1740  007DC0  14                 	db	20
  1741  007DC1  14                 	db	20
  1742  007DC2  14                 	db	20
  1743  007DC3  10                 	db	16
  1744  007DC4  10                 	db	16
  1745  007DC5  F0                 	db	240
  1746  007DC6  F0                 	db	240
  1747  007DC7  10                 	db	16
  1748  007DC8  F0                 	db	240
  1749  007DC9  F0                 	db	240
  1750  007DCA  10                 	db	16
  1751  007DCB  00                 	db	0
  1752  007DCC  00                 	db	0
  1753  007DCD  1F                 	db	31
  1754  007DCE  1F                 	db	31
  1755  007DCF  10                 	db	16
  1756  007DD0  1F                 	db	31
  1757  007DD1  1F                 	db	31
  1758  007DD2  10                 	db	16
  1759  007DD3  00                 	db	0
  1760  007DD4  00                 	db	0
  1761  007DD5  00                 	db	0
  1762  007DD6  1F                 	db	31
  1763  007DD7  1F                 	db	31
  1764  007DD8  14                 	db	20
  1765  007DD9  14                 	db	20
  1766  007DDA  14                 	db	20
  1767  007DDB  00                 	db	0
  1768  007DDC  00                 	db	0
  1769  007DDD  00                 	db	0
  1770  007DDE  FC                 	db	252
  1771  007DDF  FC                 	db	252
  1772  007DE0  14                 	db	20
  1773  007DE1  14                 	db	20
  1774  007DE2  14                 	db	20
  1775  007DE3  00                 	db	0
  1776  007DE4  00                 	db	0
  1777  007DE5  F0                 	db	240
  1778  007DE6  F0                 	db	240
  1779  007DE7  10                 	db	16
  1780  007DE8  F0                 	db	240
  1781  007DE9  F0                 	db	240
  1782  007DEA  10                 	db	16
  1783  007DEB  10                 	db	16
  1784  007DEC  10                 	db	16
  1785  007DED  FF                 	db	255
  1786  007DEE  FF                 	db	255
  1787  007DEF  10                 	db	16
  1788  007DF0  FF                 	db	255
  1789  007DF1  FF                 	db	255
  1790  007DF2  10                 	db	16
  1791  007DF3  14                 	db	20
  1792  007DF4  14                 	db	20
  1793  007DF5  14                 	db	20
  1794  007DF6  FF                 	db	255
  1795  007DF7  FF                 	db	255
  1796  007DF8  14                 	db	20
  1797  007DF9  14                 	db	20
  1798  007DFA  14                 	db	20
  1799  007DFB  10                 	db	16
  1800  007DFC  10                 	db	16
  1801  007DFD  10                 	db	16
  1802  007DFE  1F                 	db	31
  1803  007DFF  1F                 	db	31
  1804  007E00  00                 	db	0
  1805  007E01  00                 	db	0
  1806  007E02  00                 	db	0
  1807  007E03  00                 	db	0
  1808  007E04  00                 	db	0
  1809  007E05  00                 	db	0
  1810  007E06  F0                 	db	240
  1811  007E07  F0                 	db	240
  1812  007E08  10                 	db	16
  1813  007E09  10                 	db	16
  1814  007E0A  10                 	db	16
  1815  007E0B  FF                 	db	255
  1816  007E0C  FF                 	db	255
  1817  007E0D  FF                 	db	255
  1818  007E0E  FF                 	db	255
  1819  007E0F  FF                 	db	255
  1820  007E10  FF                 	db	255
  1821  007E11  FF                 	db	255
  1822  007E12  FF                 	db	255
  1823  007E13  F0                 	db	240
  1824  007E14  F0                 	db	240
  1825  007E15  F0                 	db	240
  1826  007E16  F0                 	db	240
  1827  007E17  F0                 	db	240
  1828  007E18  F0                 	db	240
  1829  007E19  F0                 	db	240
  1830  007E1A  F0                 	db	240
  1831  007E1B  FF                 	db	255
  1832  007E1C  FF                 	db	255
  1833  007E1D  FF                 	db	255
  1834  007E1E  FF                 	db	255
  1835  007E1F  00                 	db	0
  1836  007E20  00                 	db	0
  1837  007E21  00                 	db	0
  1838  007E22  00                 	db	0
  1839  007E23  00                 	db	0
  1840  007E24  00                 	db	0
  1841  007E25  00                 	db	0
  1842  007E26  00                 	db	0
  1843  007E27  FF                 	db	255
  1844  007E28  FF                 	db	255
  1845  007E29  FF                 	db	255
  1846  007E2A  FF                 	db	255
  1847  007E2B  0F                 	db	15
  1848  007E2C  0F                 	db	15
  1849  007E2D  0F                 	db	15
  1850  007E2E  0F                 	db	15
  1851  007E2F  0F                 	db	15
  1852  007E30  0F                 	db	15
  1853  007E31  0F                 	db	15
  1854  007E32  0F                 	db	15
  1855  007E33  38                 	db	56
  1856  007E34  7C                 	db	124
  1857  007E35  44                 	db	68
  1858  007E36  6C                 	db	108
  1859  007E37  38                 	db	56
  1860  007E38  6C                 	db	108
  1861  007E39  44                 	db	68
  1862  007E3A  00                 	db	0
  1863  007E3B  FC                 	db	252
  1864  007E3C  FE                 	db	254
  1865  007E3D  2A                 	db	42
  1866  007E3E  2A                 	db	42
  1867  007E3F  3E                 	db	62
  1868  007E40  14                 	db	20
  1869  007E41  00                 	db	0
  1870  007E42  00                 	db	0
  1871  007E43  7E                 	db	126
  1872  007E44  7E                 	db	126
  1873  007E45  02                 	db	2
  1874  007E46  02                 	db	2
  1875  007E47  06                 	db	6
  1876  007E48  06                 	db	6
  1877  007E49  00                 	db	0
  1878  007E4A  00                 	db	0
  1879  007E4B  02                 	db	2
  1880  007E4C  7E                 	db	126
  1881  007E4D  7E                 	db	126
  1882  007E4E  02                 	db	2
  1883  007E4F  7E                 	db	126
  1884  007E50  7E                 	db	126
  1885  007E51  02                 	db	2
  1886  007E52  00                 	db	0
  1887  007E53  63                 	db	99
  1888  007E54  77                 	db	119
  1889  007E55  5D                 	db	93
  1890  007E56  49                 	db	73
  1891  007E57  63                 	db	99
  1892  007E58  63                 	db	99
  1893  007E59  00                 	db	0
  1894  007E5A  00                 	db	0
  1895  007E5B  38                 	db	56
  1896  007E5C  7C                 	db	124
  1897  007E5D  44                 	db	68
  1898  007E5E  7C                 	db	124
  1899  007E5F  3C                 	db	60
  1900  007E60  04                 	db	4
  1901  007E61  04                 	db	4
  1902  007E62  00                 	db	0
  1903  007E63  80                 	db	128
  1904  007E64  FE                 	db	254
  1905  007E65  7E                 	db	126
  1906  007E66  20                 	db	32
  1907  007E67  20                 	db	32
  1908  007E68  3E                 	db	62
  1909  007E69  1E                 	db	30
  1910  007E6A  00                 	db	0
  1911  007E6B  04                 	db	4
  1912  007E6C  06                 	db	6
  1913  007E6D  02                 	db	2
  1914  007E6E  7E                 	db	126
  1915  007E6F  7C                 	db	124
  1916  007E70  06                 	db	6
  1917  007E71  02                 	db	2
  1918  007E72  00                 	db	0
  1919  007E73  99                 	db	153
  1920  007E74  BD                 	db	189
  1921  007E75  E7                 	db	231
  1922  007E76  E7                 	db	231
  1923  007E77  BD                 	db	189
  1924  007E78  99                 	db	153
  1925  007E79  00                 	db	0
  1926  007E7A  00                 	db	0
  1927  007E7B  1C                 	db	28
  1928  007E7C  3E                 	db	62
  1929  007E7D  6B                 	db	107
  1930  007E7E  49                 	db	73
  1931  007E7F  6B                 	db	107
  1932  007E80  3E                 	db	62
  1933  007E81  1C                 	db	28
  1934  007E82  00                 	db	0
  1935  007E83  4C                 	db	76
  1936  007E84  7E                 	db	126
  1937  007E85  73                 	db	115
  1938  007E86  01                 	db	1
  1939  007E87  73                 	db	115
  1940  007E88  7E                 	db	126
  1941  007E89  4C                 	db	76
  1942  007E8A  00                 	db	0
  1943  007E8B  30                 	db	48
  1944  007E8C  78                 	db	120
  1945  007E8D  4A                 	db	74
  1946  007E8E  4F                 	db	79
  1947  007E8F  7D                 	db	125
  1948  007E90  39                 	db	57
  1949  007E91  00                 	db	0
  1950  007E92  00                 	db	0
  1951  007E93  18                 	db	24
  1952  007E94  3C                 	db	60
  1953  007E95  24                 	db	36
  1954  007E96  3C                 	db	60
  1955  007E97  3C                 	db	60
  1956  007E98  24                 	db	36
  1957  007E99  3C                 	db	60
  1958  007E9A  18                 	db	24
  1959  007E9B  98                 	db	152
  1960  007E9C  FC                 	db	252
  1961  007E9D  64                 	db	100
  1962  007E9E  3C                 	db	60
  1963  007E9F  3E                 	db	62
  1964  007EA0  27                 	db	39
  1965  007EA1  3D                 	db	61
  1966  007EA2  18                 	db	24
  1967  007EA3  00                 	db	0
  1968  007EA4  00                 	db	0
  1969  007EA5  00                 	db	0
  1970  007EA6  00                 	db	0
  1971  007EA7  00                 	db	0
  1972  007EA8  00                 	db	0
  1973  007EA9  00                 	db	0
  1974  007EAA  00                 	db	0
  1975  007EAB  00                 	db	0
  1976  007EAC  00                 	db	0
  1977  007EAD  00                 	db	0
  1978  007EAE  00                 	db	0
  1979  007EAF  00                 	db	0
  1980  007EB0  00                 	db	0
  1981  007EB1  00                 	db	0
  1982  007EB2  00                 	db	0
  1983  007EB3  00                 	db	0
  1984  007EB4  00                 	db	0
  1985  007EB5  00                 	db	0
  1986  007EB6  00                 	db	0
  1987  007EB7  00                 	db	0
  1988  007EB8  00                 	db	0
  1989  007EB9  00                 	db	0
  1990  007EBA  00                 	db	0
  1991  007EBB  00                 	db	0
  1992  007EBC  00                 	db	0
  1993  007EBD  00                 	db	0
  1994  007EBE  00                 	db	0
  1995  007EBF  00                 	db	0
  1996  007EC0  00                 	db	0
  1997  007EC1  00                 	db	0
  1998  007EC2  00                 	db	0
  1999  007EC3  00                 	db	0
  2000  007EC4  00                 	db	0
  2001  007EC5  00                 	db	0
  2002  007EC6  00                 	db	0
  2003  007EC7  00                 	db	0
  2004  007EC8  00                 	db	0
  2005  007EC9  00                 	db	0
  2006  007ECA  00                 	db	0
  2007  007ECB  00                 	db	0
  2008  007ECC  00                 	db	0
  2009  007ECD  00                 	db	0
  2010  007ECE  00                 	db	0
  2011  007ECF  00                 	db	0
  2012  007ED0  00                 	db	0
  2013  007ED1  00                 	db	0
  2014  007ED2  00                 	db	0
  2015  007ED3  00                 	db	0
  2016  007ED4  00                 	db	0
  2017  007ED5  00                 	db	0
  2018  007ED6  00                 	db	0
  2019  007ED7  00                 	db	0
  2020  007ED8  00                 	db	0
  2021  007ED9  00                 	db	0
  2022  007EDA  00                 	db	0
  2023  007EDB  00                 	db	0
  2024  007EDC  00                 	db	0
  2025  007EDD  00                 	db	0
  2026  007EDE  00                 	db	0
  2027  007EDF  00                 	db	0
  2028  007EE0  00                 	db	0
  2029  007EE1  00                 	db	0
  2030  007EE2  00                 	db	0
  2031  007EE3  00                 	db	0
  2032  007EE4  00                 	db	0
  2033  007EE5  00                 	db	0
  2034  007EE6  00                 	db	0
  2035  007EE7  00                 	db	0
  2036  007EE8  00                 	db	0
  2037  007EE9  00                 	db	0
  2038  007EEA  00                 	db	0
  2039  007EEB  00                 	db	0
  2040  007EEC  00                 	db	0
  2041  007EED  00                 	db	0
  2042  007EEE  00                 	db	0
  2043  007EEF  00                 	db	0
  2044  007EF0  00                 	db	0
  2045  007EF1  00                 	db	0
  2046  007EF2  00                 	db	0
  2047  007EF3  00                 	db	0
  2048  007EF4  00                 	db	0
  2049  007EF5  00                 	db	0
  2050  007EF6  00                 	db	0
  2051  007EF7  00                 	db	0
  2052  007EF8  00                 	db	0
  2053  007EF9  00                 	db	0
  2054  007EFA  00                 	db	0
  2055  007EFB  00                 	db	0
  2056  007EFC  00                 	db	0
  2057  007EFD  00                 	db	0
  2058  007EFE  00                 	db	0
  2059  007EFF  00                 	db	0
  2060  007F00  00                 	db	0
  2061  007F01  00                 	db	0
  2062  007F02  00                 	db	0
  2063  007F03  00                 	db	0
  2064  007F04  00                 	db	0
  2065  007F05  00                 	db	0
  2066  007F06  00                 	db	0
  2067  007F07  00                 	db	0
  2068  007F08  00                 	db	0
  2069  007F09  00                 	db	0
  2070  007F0A  00                 	db	0
  2071  007F0B  00                 	db	0
  2072  007F0C  00                 	db	0
  2073  007F0D  00                 	db	0
  2074  007F0E  00                 	db	0
  2075  007F0F  00                 	db	0
  2076  007F10  00                 	db	0
  2077  007F11  00                 	db	0
  2078  007F12  00                 	db	0
  2079  007F13  00                 	db	0
  2080  007F14  00                 	db	0
  2081  007F15  00                 	db	0
  2082  007F16  00                 	db	0
  2083  007F17  00                 	db	0
  2084  007F18  00                 	db	0
  2085  007F19  00                 	db	0
  2086  007F1A  00                 	db	0
  2087  007F1B  00                 	db	0
  2088  007F1C  00                 	db	0
  2089  007F1D  00                 	db	0
  2090  007F1E  00                 	db	0
  2091  007F1F  00                 	db	0
  2092  007F20  00                 	db	0
  2093  007F21  00                 	db	0
  2094  007F22  00                 	db	0
  2095  007F23  00                 	db	0
  2096  007F24  00                 	db	0
  2097  007F25  00                 	db	0
  2098  007F26  00                 	db	0
  2099  007F27  00                 	db	0
  2100  007F28  00                 	db	0
  2101  007F29  00                 	db	0
  2102  007F2A  00                 	db	0
  2103  007F2B  00                 	db	0
  2104  007F2C  00                 	db	0
  2105  007F2D  00                 	db	0
  2106  007F2E  00                 	db	0
  2107  007F2F  00                 	db	0
  2108  007F30  00                 	db	0
  2109  007F31  00                 	db	0
  2110  007F32  00                 	db	0
  2111  007F33                     __end_of_Font8x8:
  2112                           	callstack 0
  2113  007F33                     _Font3x6:
  2114                           	callstack 0
  2115  007F33  00                 	db	0
  2116  007F34  00                 	db	0
  2117  007F35  00                 	db	0
  2118  007F36  00                 	db	0
  2119  007F37  5C                 	db	92
  2120  007F38  00                 	db	0
  2121  007F39  0C                 	db	12
  2122  007F3A  00                 	db	0
  2123  007F3B  0C                 	db	12
  2124  007F3C  7C                 	db	124
  2125  007F3D  28                 	db	40
  2126  007F3E  7C                 	db	124
  2127  007F3F  7C                 	db	124
  2128  007F40  44                 	db	68
  2129  007F41  7C                 	db	124
  2130  007F42  24                 	db	36
  2131  007F43  10                 	db	16
  2132  007F44  48                 	db	72
  2133  007F45  28                 	db	40
  2134  007F46  54                 	db	84
  2135  007F47  08                 	db	8
  2136  007F48  00                 	db	0
  2137  007F49  0C                 	db	12
  2138  007F4A  00                 	db	0
  2139  007F4B  38                 	db	56
  2140  007F4C  44                 	db	68
  2141  007F4D  00                 	db	0
  2142  007F4E  44                 	db	68
  2143  007F4F  38                 	db	56
  2144  007F50  00                 	db	0
  2145  007F51  20                 	db	32
  2146  007F52  10                 	db	16
  2147  007F53  08                 	db	8
  2148  007F54  10                 	db	16
  2149  007F55  38                 	db	56
  2150  007F56  10                 	db	16
  2151  007F57  80                 	db	128
  2152  007F58  40                 	db	64
  2153  007F59  00                 	db	0
  2154  007F5A  10                 	db	16
  2155  007F5B  10                 	db	16
  2156  007F5C  10                 	db	16
  2157  007F5D  00                 	db	0
  2158  007F5E  40                 	db	64
  2159  007F5F  00                 	db	0
  2160  007F60  20                 	db	32
  2161  007F61  10                 	db	16
  2162  007F62  08                 	db	8
  2163  007F63  38                 	db	56
  2164  007F64  44                 	db	68
  2165  007F65  38                 	db	56
  2166  007F66  00                 	db	0
  2167  007F67  7C                 	db	124
  2168  007F68  00                 	db	0
  2169  007F69  64                 	db	100
  2170  007F6A  54                 	db	84
  2171  007F6B  48                 	db	72
  2172  007F6C  44                 	db	68
  2173  007F6D  54                 	db	84
  2174  007F6E  28                 	db	40
  2175  007F6F  1C                 	db	28
  2176  007F70  10                 	db	16
  2177  007F71  7C                 	db	124
  2178  007F72  4C                 	db	76
  2179  007F73  54                 	db	84
  2180  007F74  24                 	db	36
  2181  007F75  38                 	db	56
  2182  007F76  54                 	db	84
  2183  007F77  20                 	db	32
  2184  007F78  04                 	db	4
  2185  007F79  74                 	db	116
  2186  007F7A  0C                 	db	12
  2187  007F7B  28                 	db	40
  2188  007F7C  54                 	db	84
  2189  007F7D  28                 	db	40
  2190  007F7E  08                 	db	8
  2191  007F7F  54                 	db	84
  2192  007F80  38                 	db	56
  2193  007F81  00                 	db	0
  2194  007F82  50                 	db	80
  2195  007F83  00                 	db	0
  2196  007F84  80                 	db	128
  2197  007F85  50                 	db	80
  2198  007F86  00                 	db	0
  2199  007F87  10                 	db	16
  2200  007F88  28                 	db	40
  2201  007F89  44                 	db	68
  2202  007F8A  28                 	db	40
  2203  007F8B  28                 	db	40
  2204  007F8C  28                 	db	40
  2205  007F8D  44                 	db	68
  2206  007F8E  28                 	db	40
  2207  007F8F  10                 	db	16
  2208  007F90  04                 	db	4
  2209  007F91  54                 	db	84
  2210  007F92  08                 	db	8
  2211  007F93  38                 	db	56
  2212  007F94  4C                 	db	76
  2213  007F95  5C                 	db	92
  2214  007F96  78                 	db	120
  2215  007F97  14                 	db	20
  2216  007F98  78                 	db	120
  2217  007F99  7C                 	db	124
  2218  007F9A  54                 	db	84
  2219  007F9B  28                 	db	40
  2220  007F9C  38                 	db	56
  2221  007F9D  44                 	db	68
  2222  007F9E  44                 	db	68
  2223  007F9F  7C                 	db	124
  2224  007FA0  44                 	db	68
  2225  007FA1  38                 	db	56
  2226  007FA2  7C                 	db	124
  2227  007FA3  54                 	db	84
  2228  007FA4  44                 	db	68
  2229  007FA5  7C                 	db	124
  2230  007FA6  14                 	db	20
  2231  007FA7  04                 	db	4
  2232  007FA8  38                 	db	56
  2233  007FA9  44                 	db	68
  2234  007FAA  34                 	db	52
  2235  007FAB  7C                 	db	124
  2236  007FAC  10                 	db	16
  2237  007FAD  7C                 	db	124
  2238  007FAE  00                 	db	0
  2239  007FAF  7C                 	db	124
  2240  007FB0  00                 	db	0
  2241  007FB1  20                 	db	32
  2242  007FB2  40                 	db	64
  2243  007FB3  3C                 	db	60
  2244  007FB4  7C                 	db	124
  2245  007FB5  10                 	db	16
  2246  007FB6  6C                 	db	108
  2247  007FB7  7C                 	db	124
  2248  007FB8  40                 	db	64
  2249  007FB9  40                 	db	64
  2250  007FBA  7C                 	db	124
  2251  007FBB  08                 	db	8
  2252  007FBC  7C                 	db	124
  2253  007FBD  7C                 	db	124
  2254  007FBE  04                 	db	4
  2255  007FBF  7C                 	db	124
  2256  007FC0  7C                 	db	124
  2257  007FC1  44                 	db	68
  2258  007FC2  7C                 	db	124
  2259  007FC3  7C                 	db	124
  2260  007FC4  14                 	db	20
  2261  007FC5  08                 	db	8
  2262  007FC6  38                 	db	56
  2263  007FC7  44                 	db	68
  2264  007FC8  78                 	db	120
  2265  007FC9  7C                 	db	124
  2266  007FCA  14                 	db	20
  2267  007FCB  68                 	db	104
  2268  007FCC  48                 	db	72
  2269  007FCD  54                 	db	84
  2270  007FCE  24                 	db	36
  2271  007FCF  04                 	db	4
  2272  007FD0  7C                 	db	124
  2273  007FD1  04                 	db	4
  2274  007FD2  7C                 	db	124
  2275  007FD3  40                 	db	64
  2276  007FD4  7C                 	db	124
  2277  007FD5  3C                 	db	60
  2278  007FD6  40                 	db	64
  2279  007FD7  3C                 	db	60
  2280  007FD8  7C                 	db	124
  2281  007FD9  20                 	db	32
  2282  007FDA  7C                 	db	124
  2283  007FDB  6C                 	db	108
  2284  007FDC  10                 	db	16
  2285  007FDD  6C                 	db	108
  2286  007FDE  1C                 	db	28
  2287  007FDF  60                 	db	96
  2288  007FE0  1C                 	db	28
  2289  007FE1  64                 	db	100
  2290  007FE2  54                 	db	84
  2291  007FE3  4C                 	db	76
  2292  007FE4  7C                 	db	124
  2293  007FE5  44                 	db	68
  2294  007FE6  00                 	db	0
  2295  007FE7  08                 	db	8
  2296  007FE8  10                 	db	16
  2297  007FE9  20                 	db	32
  2298  007FEA  44                 	db	68
  2299  007FEB  7C                 	db	124
  2300  007FEC  00                 	db	0
  2301  007FED  08                 	db	8
  2302  007FEE  04                 	db	4
  2303  007FEF  08                 	db	8
  2304  007FF0  80                 	db	128
  2305  007FF1  80                 	db	128
  2306  007FF2  80                 	db	128
  2307  007FF3  04                 	db	4
  2308  007FF4  08                 	db	8
  2309  007FF5  00                 	db	0
  2310  007FF6                     __end_of_Font3x6:
  2311                           	callstack 0
  2312  0000                     _LATD	set	3980
  2313  0000                     _LATBbits	set	3978
  2314  0000                     _PORTD	set	3971
  2315  0000                     _TRISD	set	3989
  2316  0000                     _PORTB	set	3969
  2317  0000                     _TRISB	set	3987
  2318  0000                     _ADCON1	set	4033
  2319  0000                     _PORTA	set	3968
  2320  0000                     _TRISA	set	3986
  2321  0000                     _PORTEbits	set	3972
  2322  007FF6                     STR_1:
  2323  007FF6  48                 	db	72	;'H'
  2324  007FF7  45                 	db	69	;'E'
  2325  007FF8  4C                 	db	76	;'L'
  2326  007FF9  4C                 	db	76	;'L'
  2327  007FFA  4F                 	db	79	;'O'
  2328  007FFB  20                 	db	32
  2329  007FFC  21                 	db	33
  2330  007FFD  00                 	db	0
  2331  007FFE  00                 	db	0	; dummy byte at the end
  2332  0000                     
  2333                           ; #config settings
  2334                           
  2335                           	psect	cinit
  2336  00727C                     __pcinit:
  2337                           	callstack 0
  2338  00727C                     start_initialization:
  2339                           	callstack 0
  2340  00727C                     __initialization:
  2341                           	callstack 0
  2342                           
  2343                           ; Clear objects allocated to COMRAM (2 bytes)
  2344  00727C  6A11               	clrf	(__pbssCOMRAM+1)& (0+255),c
  2345  00727E  6A10               	clrf	__pbssCOMRAM& (0+255),c
  2346  007280                     end_of_initialization:
  2347                           	callstack 0
  2348  007280                     __end_of__initialization:
  2349                           	callstack 0
  2350  007280  0E00               	movlw	low (__Lmediumconst shr (0+16))
  2351  007282  6EF8               	movwf	tblptru,c
  2352  007284  0100               	movlb	0
  2353  007286  EF45  F039         	goto	_main	;jump to C main() function
  2354                           
  2355                           	psect	bssCOMRAM
  2356  000010                     __pbssCOMRAM:
  2357                           	callstack 0
  2358  000010                     _y:
  2359                           	callstack 0
  2360  000010                     	ds	1
  2361  000011                     _x:
  2362                           	callstack 0
  2363  000011                     	ds	1
  2364                           
  2365                           	psect	cstackCOMRAM
  2366  000001                     __pcstackCOMRAM:
  2367                           	callstack 0
  2368  000001                     glcd_WriteByte@data:
  2369                           	callstack 0
  2370                           
  2371                           ; 1 bytes @ 0x0
  2372  000001                     	ds	1
  2373  000002                     glcd_WriteByte@side:
  2374                           	callstack 0
  2375                           
  2376                           ; 1 bytes @ 0x1
  2377  000002                     	ds	1
  2378  000003                     glcd_FillScreen@color:
  2379                           	callstack 0
  2380  000003                     glcd_SetCursor@ypos:
  2381                           	callstack 0
  2382  000003                     glcd_WriteChar8X8@color:
  2383                           	callstack 0
  2384  000003                     glcd_WriteChar3x6@color:
  2385                           	callstack 0
  2386                           
  2387                           ; 1 bytes @ 0x2
  2388  000003                     	ds	1
  2389  000004                     ??_glcd_WriteChar8X8:
  2390  000004                     ??_glcd_WriteChar3x6:
  2391  000004                     glcd_FillScreen@j:
  2392                           	callstack 0
  2393  000004                     glcd_SetCursor@side:
  2394                           	callstack 0
  2395                           
  2396                           ; 1 bytes @ 0x3
  2397  000004                     	ds	1
  2398  000005                     glcd_FillScreen@i:
  2399                           	callstack 0
  2400  000005                     glcd_SetCursor@xpos:
  2401                           	callstack 0
  2402                           
  2403                           ; 1 bytes @ 0x4
  2404  000005                     	ds	1
  2405  000006                     ??_glcd_Init:
  2406  000006                     glcd_WriteChar3x6@xpos:
  2407                           	callstack 0
  2408  000006                     glcd_WriteChar8X8@chr:
  2409                           	callstack 0
  2410                           
  2411                           ; 2 bytes @ 0x5
  2412  000006                     	ds	1
  2413  000007                     glcd_Init@mode:
  2414                           	callstack 0
  2415  000007                     glcd_WriteChar3x6@ch:
  2416                           	callstack 0
  2417                           
  2418                           ; 1 bytes @ 0x6
  2419  000007                     	ds	1
  2420  000008                     glcd_WriteChar8X8@ch:
  2421                           	callstack 0
  2422  000008                     glcd_WriteChar3x6@i:
  2423                           	callstack 0
  2424                           
  2425                           ; 1 bytes @ 0x7
  2426  000008                     	ds	1
  2427  000009                     glcd_WriteChar8X8@xpos:
  2428                           	callstack 0
  2429  000009                     glcd_WriteChar3x6@side:
  2430                           	callstack 0
  2431                           
  2432                           ; 1 bytes @ 0x8
  2433  000009                     	ds	1
  2434  00000A                     glcd_WriteChar8X8@i:
  2435                           	callstack 0
  2436                           
  2437                           ; 1 bytes @ 0x9
  2438  00000A                     	ds	1
  2439  00000B                     glcd_WriteChar8X8@side:
  2440                           	callstack 0
  2441                           
  2442                           ; 1 bytes @ 0xA
  2443  00000B                     	ds	1
  2444  00000C                     glcd_WriteString@str:
  2445                           	callstack 0
  2446                           
  2447                           ; 2 bytes @ 0xB
  2448  00000C                     	ds	2
  2449  00000E                     glcd_WriteString@font:
  2450                           	callstack 0
  2451                           
  2452                           ; 1 bytes @ 0xD
  2453  00000E                     	ds	1
  2454  00000F                     glcd_WriteString@color:
  2455                           	callstack 0
  2456                           
  2457                           ; 1 bytes @ 0xE
  2458  00000F                     	ds	1
  2459  000010                     
  2460                           ; 1 bytes @ 0xF
  2461 ;;
  2462 ;;Main: autosize = 0, tempsize = 0, incstack = 0, save=0
  2463 ;;
  2464 ;; *************** function _main *****************
  2465 ;; Defined at:
  2466 ;;		line 20 in file "Main.c"
  2467 ;; Parameters:    Size  Location     Type
  2468 ;;		None
  2469 ;; Auto vars:     Size  Location     Type
  2470 ;;		None
  2471 ;; Return value:  Size  Location     Type
  2472 ;;                  2   12[None  ] int 
  2473 ;; Registers used:
  2474 ;;		wreg, status,2, status,0, tblptrl, tblptrh, tblptru, prodl, prodh, cstack
  2475 ;; Tracked objects:
  2476 ;;		On entry : 0/0
  2477 ;;		On exit  : 0/0
  2478 ;;		Unchanged: 0/0
  2479 ;; Data sizes:     COMRAM   BANK0   BANK1   BANK2   BANK3   BANK4   BANK5   BANK6   BANK7
  2480 ;;      Params:         0       0       0       0       0       0       0       0       0
  2481 ;;      Locals:         0       0       0       0       0       0       0       0       0
  2482 ;;      Temps:          0       0       0       0       0       0       0       0       0
  2483 ;;      Totals:         0       0       0       0       0       0       0       0       0
  2484 ;;Total ram usage:        0 bytes
  2485 ;; Hardware stack levels required when called: 3
  2486 ;; This function calls:
  2487 ;;		_glcd_FillScreen
  2488 ;;		_glcd_Init
  2489 ;;		_glcd_SetCursor
  2490 ;;		_glcd_WriteString
  2491 ;; This function is called by:
  2492 ;;		Startup code after reset
  2493 ;; This function uses a non-reentrant model
  2494 ;;
  2495                           
  2496                           	psect	text0
  2497  00728A                     __ptext0:
  2498                           	callstack 0
  2499  00728A                     _main:
  2500                           	callstack 28
  2501  00728A  0E01               	movlw	1
  2502  00728C  EC24  F03A         	call	_glcd_Init
  2503  007290                     l13:
  2504  007290  0E00               	movlw	0
  2505  007292  ECE4  F039         	call	_glcd_FillScreen
  2506  007296  0E00               	movlw	0
  2507  007298  6E03               	movwf	glcd_SetCursor@ypos^0,c
  2508  00729A  0E01               	movlw	1
  2509  00729C  ECB0  F039         	call	_glcd_SetCursor
  2510  0072A0  0EF6               	movlw	low STR_1
  2511  0072A2  6E0C               	movwf	glcd_WriteString@str^0,c
  2512  0072A4  0E7F               	movlw	high STR_1
  2513  0072A6  6E0D               	movwf	(glcd_WriteString@str+1)^0,c
  2514  0072A8  0E01               	movlw	1
  2515  0072AA  6E0E               	movwf	glcd_WriteString@font^0,c
  2516  0072AC  0E01               	movlw	1
  2517  0072AE  6E0F               	movwf	glcd_WriteString@color^0,c
  2518  0072B0  EC7F  F039         	call	_glcd_WriteString	;wreg free
  2519  0072B4  EF48  F039         	goto	l13
  2520  0072B8  EF00  F000         	goto	start
  2521  0072BC                     __end_of_main:
  2522                           	callstack 0
  2523                           
  2524 ;; *************** function _glcd_WriteString *****************
  2525 ;; Defined at:
  2526 ;;		line 668 in file "glcd.c"
  2527 ;; Parameters:    Size  Location     Type
  2528 ;;  str             2   11[COMRAM] PTR const unsigned char 
  2529 ;;		 -> STR_1(8), 
  2530 ;;  font            1   13[COMRAM] unsigned char 
  2531 ;;  color           1   14[COMRAM] unsigned char 
  2532 ;; Auto vars:     Size  Location     Type
  2533 ;;		None
  2534 ;; Return value:  Size  Location     Type
  2535 ;;                  1    wreg      void 
  2536 ;; Registers used:
  2537 ;;		wreg, status,2, status,0, tblptrl, tblptrh, tblptru, prodl, prodh, cstack
  2538 ;; Tracked objects:
  2539 ;;		On entry : 0/0
  2540 ;;		On exit  : 0/0
  2541 ;;		Unchanged: 0/0
  2542 ;; Data sizes:     COMRAM   BANK0   BANK1   BANK2   BANK3   BANK4   BANK5   BANK6   BANK7
  2543 ;;      Params:         4       0       0       0       0       0       0       0       0
  2544 ;;      Locals:         0       0       0       0       0       0       0       0       0
  2545 ;;      Temps:          0       0       0       0       0       0       0       0       0
  2546 ;;      Totals:         4       0       0       0       0       0       0       0       0
  2547 ;;Total ram usage:        4 bytes
  2548 ;; Hardware stack levels used: 1
  2549 ;; Hardware stack levels required when called: 2
  2550 ;; This function calls:
  2551 ;;		_glcd_WriteChar3x6
  2552 ;;		_glcd_WriteChar8X8
  2553 ;; This function is called by:
  2554 ;;		_main
  2555 ;;		_glcd_text_write
  2556 ;; This function uses a non-reentrant model
  2557 ;;
  2558                           
  2559                           	psect	text1
  2560  0072FE                     __ptext1:
  2561                           	callstack 0
  2562  0072FE                     _glcd_WriteString:
  2563                           	callstack 28
  2564  0072FE                     
  2565                           ;glcd.c: 668: void glcd_WriteString(const char str[],unsigned char font,unsigned char co
      +                          lor);glcd.c: 669: {;glcd.c: 670:    while(*str)
  2566  0072FE  EFA1  F039         	goto	l1374
  2567  007302                     l1366:
  2568                           
  2569                           ;glcd.c: 671:      {;glcd.c: 672:         if(font)
  2570  007302  500E               	movf	glcd_WriteString@font^0,w,c
  2571  007304  B4D8               	btfsc	status,2,c
  2572  007306  EF87  F039         	goto	u511
  2573  00730A  EF89  F039         	goto	u510
  2574  00730E                     u511:
  2575  00730E  EF95  F039         	goto	l1370
  2576  007312                     u510:
  2577  007312                     
  2578                           ;glcd.c: 673:           glcd_WriteChar8X8(*str, color);
  2579  007312  C00F  F003         	movff	glcd_WriteString@color,glcd_WriteChar8X8@color
  2580  007316  C00C  FFF6         	movff	glcd_WriteString@str,tblptrl
  2581  00731A  C00D  FFF7         	movff	glcd_WriteString@str+1,tblptrh
  2582  00731E                     	if	0	;tblptru may be non-zero
  2583  00731E                     	endif
  2584  00731E                     	if	0	;tblptru may be non-zero
  2585  00731E                     	endif
  2586  00731E  0008               	tblrd		*
  2587  007320  50F5               	movf	tablat,w,c
  2588  007322  EC11  F03B         	call	_glcd_WriteChar8X8
  2589  007326  EF9F  F039         	goto	l1372
  2590  00732A                     l1370:
  2591                           
  2592                           ;glcd.c: 675:           glcd_WriteChar3x6(*str, color);
  2593  00732A  C00F  F003         	movff	glcd_WriteString@color,glcd_WriteChar3x6@color
  2594  00732E  C00C  FFF6         	movff	glcd_WriteString@str,tblptrl
  2595  007332  C00D  FFF7         	movff	glcd_WriteString@str+1,tblptrh
  2596  007336                     	if	0	;tblptru may be non-zero
  2597  007336                     	endif
  2598  007336                     	if	0	;tblptru may be non-zero
  2599  007336                     	endif
  2600  007336  0008               	tblrd		*
  2601  007338  50F5               	movf	tablat,w,c
  2602  00733A  EC89  F03A         	call	_glcd_WriteChar3x6
  2603  00733E                     l1372:
  2604                           
  2605                           ;glcd.c: 676:         str++;
  2606  00733E  4A0C               	infsnz	glcd_WriteString@str^0,f,c
  2607  007340  2A0D               	incf	(glcd_WriteString@str+1)^0,f,c
  2608  007342                     l1374:
  2609                           
  2610                           ;glcd.c: 670:    while(*str)
  2611  007342  C00C  FFF6         	movff	glcd_WriteString@str,tblptrl
  2612  007346  C00D  FFF7         	movff	glcd_WriteString@str+1,tblptrh
  2613  00734A                     	if	0	;tblptru may be non-zero
  2614  00734A                     	endif
  2615  00734A                     	if	0	;tblptru may be non-zero
  2616  00734A                     	endif
  2617  00734A  0008               	tblrd		*
  2618  00734C  50F5               	movf	tablat,w,c
  2619  00734E  0900               	iorlw	0
  2620  007350  A4D8               	btfss	status,2,c
  2621  007352  EFAD  F039         	goto	u521
  2622  007356  EFAF  F039         	goto	u520
  2623  00735A                     u521:
  2624  00735A  EF81  F039         	goto	l1366
  2625  00735E                     u520:
  2626  00735E  0012               	return		;funcret
  2627  007360                     __end_of_glcd_WriteString:
  2628                           	callstack 0
  2629                           
  2630 ;; *************** function _glcd_WriteChar8X8 *****************
  2631 ;; Defined at:
  2632 ;;		line 574 in file "glcd.c"
  2633 ;; Parameters:    Size  Location     Type
  2634 ;;  ch              1    wreg     unsigned char 
  2635 ;;  color           1    2[COMRAM] unsigned char 
  2636 ;; Auto vars:     Size  Location     Type
  2637 ;;  ch              1    7[COMRAM] unsigned char 
  2638 ;;  chr             2    5[COMRAM] unsigned int 
  2639 ;;  side            1   10[COMRAM] unsigned char 
  2640 ;;  i               1    9[COMRAM] unsigned char 
  2641 ;;  xpos            1    8[COMRAM] unsigned char 
  2642 ;; Return value:  Size  Location     Type
  2643 ;;                  1    wreg      void 
  2644 ;; Registers used:
  2645 ;;		wreg, status,2, status,0, tblptrl, tblptrh, tblptru, prodl, prodh, cstack
  2646 ;; Tracked objects:
  2647 ;;		On entry : 0/0
  2648 ;;		On exit  : 0/0
  2649 ;;		Unchanged: 0/0
  2650 ;; Data sizes:     COMRAM   BANK0   BANK1   BANK2   BANK3   BANK4   BANK5   BANK6   BANK7
  2651 ;;      Params:         1       0       0       0       0       0       0       0       0
  2652 ;;      Locals:         6       0       0       0       0       0       0       0       0
  2653 ;;      Temps:          2       0       0       0       0       0       0       0       0
  2654 ;;      Totals:         9       0       0       0       0       0       0       0       0
  2655 ;;Total ram usage:        9 bytes
  2656 ;; Hardware stack levels used: 1
  2657 ;; Hardware stack levels required when called: 1
  2658 ;; This function calls:
  2659 ;;		_glcd_WriteByte
  2660 ;; This function is called by:
  2661 ;;		_glcd_WriteString
  2662 ;; This function uses a non-reentrant model
  2663 ;;
  2664                           
  2665                           	psect	text2
  2666  007622                     __ptext2:
  2667                           	callstack 0
  2668  007622                     _glcd_WriteChar8X8:
  2669                           	callstack 28
  2670                           
  2671                           ;incstack = 0
  2672                           ;glcd_WriteChar8X8@ch stored from wreg
  2673  007622  6E08               	movwf	glcd_WriteChar8X8@ch^0,c
  2674  007624                     
  2675                           ;glcd.c: 574: void glcd_WriteChar8X8(unsigned char ch, unsigned char color);glcd.c: 575:
      +                           {;glcd.c: 576:    unsigned char i,xpos;;glcd.c: 577:    unsigned char side = 0;
  2676  007624  0E00               	movlw	0
  2677  007626  6E0B               	movwf	glcd_WriteChar8X8@side^0,c
  2678  007628                     
  2679                           ;glcd.c: 578:    unsigned int chr;;glcd.c: 580:    if (ch=='\n')
  2680  007628  0E0A               	movlw	10
  2681  00762A  1808               	xorwf	glcd_WriteChar8X8@ch^0,w,c
  2682  00762C  A4D8               	btfss	status,2,c
  2683  00762E  EF1B  F03B         	goto	u371
  2684  007632  EF1D  F03B         	goto	u370
  2685  007636                     u371:
  2686  007636  EF22  F03B         	goto	l1204
  2687  00763A                     u370:
  2688  00763A                     
  2689                           ;glcd.c: 581:      {;glcd.c: 582:         x=0;
  2690  00763A  0E00               	movlw	0
  2691  00763C  6E11               	movwf	_x^0,c
  2692  00763E                     
  2693                           ;glcd.c: 583:         y++;
  2694  00763E  2A10               	incf	_y^0,f,c
  2695  007640  EF98  F03B         	goto	l109
  2696  007644                     l1204:
  2697                           
  2698                           ;glcd.c: 587:    if(x > 63)
  2699  007644  0E3F               	movlw	63
  2700  007646  6411               	cpfsgt	_x^0,c
  2701  007648  EF28  F03B         	goto	u381
  2702  00764C  EF2A  F03B         	goto	u380
  2703  007650                     u381:
  2704  007650  EF31  F03B         	goto	l110
  2705  007654                     u380:
  2706  007654                     
  2707                           ;glcd.c: 588:      {;glcd.c: 589:         side = 1;
  2708  007654  0E01               	movlw	1
  2709  007656  6E0B               	movwf	glcd_WriteChar8X8@side^0,c
  2710  007658                     
  2711                           ;glcd.c: 590:         xpos=x-64;
  2712  007658  5011               	movf	_x^0,w,c
  2713  00765A  0FC0               	addlw	192
  2714  00765C  6E09               	movwf	glcd_WriteChar8X8@xpos^0,c
  2715                           
  2716                           ;glcd.c: 591:      }
  2717  00765E  EF33  F03B         	goto	l1210
  2718  007662                     l110:
  2719                           
  2720                           ;glcd.c: 593:      xpos=x;
  2721  007662  C011  F009         	movff	_x,glcd_WriteChar8X8@xpos
  2722  007666                     l1210:
  2723                           
  2724                           ;glcd.c: 595:    chr = (int)ch*8;
  2725  007666  5008               	movf	glcd_WriteChar8X8@ch^0,w,c
  2726  007668  0D08               	mullw	8
  2727  00766A  CFF3 F006          	movff	prodl,glcd_WriteChar8X8@chr
  2728  00766E  CFF4 F007          	movff	prodh,glcd_WriteChar8X8@chr+1
  2729  007672                     
  2730                           ;glcd.c: 597:    for(i = 0; i < 8; i++)
  2731  007672  0E00               	movlw	0
  2732  007674  6E0A               	movwf	glcd_WriteChar8X8@i^0,c
  2733  007676                     l1218:
  2734                           
  2735                           ;glcd.c: 598:      {;glcd.c: 600:         if(xpos > 63)
  2736  007676  0E3F               	movlw	63
  2737  007678  6409               	cpfsgt	glcd_WriteChar8X8@xpos^0,c
  2738  00767A  EF41  F03B         	goto	u391
  2739  00767E  EF43  F03B         	goto	u390
  2740  007682                     u391:
  2741  007682  EF55  F03B         	goto	l1232
  2742  007686                     u390:
  2743  007686                     
  2744                           ;glcd.c: 601:           {;glcd.c: 602:              xpos -= 64;
  2745  007686  0E40               	movlw	64
  2746  007688  5E09               	subwf	glcd_WriteChar8X8@xpos^0,f,c
  2747  00768A                     
  2748                           ;glcd.c: 603:              side = 1;
  2749  00768A  0E01               	movlw	1
  2750  00768C  6E0B               	movwf	glcd_WriteChar8X8@side^0,c
  2751  00768E                     
  2752                           ;glcd.c: 604:              LATBbits.LATB2=0;
  2753  00768E  948A               	bcf	138,2,c	;volatile
  2754  007690                     
  2755                           ;glcd.c: 605:              glcd_WriteByte(side, 0x40 | xpos);
  2756  007690  5009               	movf	glcd_WriteChar8X8@xpos^0,w,c
  2757  007692  0940               	iorlw	64
  2758  007694  6E01               	movwf	glcd_WriteByte@data^0,c
  2759  007696  0E01               	movlw	1
  2760  007698  EC5E  F039         	call	_glcd_WriteByte
  2761  00769C                     
  2762                           ;glcd.c: 606:              glcd_WriteByte(side, 0xB8 | y);
  2763  00769C  5010               	movf	_y^0,w,c
  2764  00769E  09B8               	iorlw	184
  2765  0076A0  6E01               	movwf	glcd_WriteByte@data^0,c
  2766  0076A2  0E01               	movlw	1
  2767  0076A4  EC5E  F039         	call	_glcd_WriteByte
  2768  0076A8                     
  2769                           ;glcd.c: 607:              LATBbits.LATB2=1;
  2770  0076A8  848A               	bsf	138,2,c	;volatile
  2771  0076AA                     l1232:
  2772                           
  2773                           ;glcd.c: 609:         if(color)
  2774  0076AA  5003               	movf	glcd_WriteChar8X8@color^0,w,c
  2775  0076AC  B4D8               	btfsc	status,2,c
  2776  0076AE  EF5B  F03B         	goto	u401
  2777  0076B2  EF5D  F03B         	goto	u400
  2778  0076B6                     u401:
  2779  0076B6  EF75  F03B         	goto	l1236
  2780  0076BA                     u400:
  2781  0076BA                     
  2782                           ;glcd.c: 610:           glcd_WriteByte(side,Font8x8[chr+i]);
  2783  0076BA  0E33               	movlw	low _Font8x8
  2784  0076BC  6E04               	movwf	??_glcd_WriteChar8X8^0,c
  2785  0076BE  0E77               	movlw	high _Font8x8
  2786  0076C0  6E05               	movwf	(??_glcd_WriteChar8X8+1)^0,c
  2787  0076C2  500A               	movf	glcd_WriteChar8X8@i^0,w,c
  2788  0076C4  2604               	addwf	??_glcd_WriteChar8X8^0,f,c
  2789  0076C6  0E00               	movlw	0
  2790  0076C8  2205               	addwfc	(??_glcd_WriteChar8X8+1)^0,f,c
  2791  0076CA  5006               	movf	glcd_WriteChar8X8@chr^0,w,c
  2792  0076CC  2604               	addwf	??_glcd_WriteChar8X8^0,f,c
  2793  0076CE  5007               	movf	(glcd_WriteChar8X8@chr+1)^0,w,c
  2794  0076D0  2205               	addwfc	(??_glcd_WriteChar8X8+1)^0,f,c
  2795  0076D2  C004  FFF6         	movff	??_glcd_WriteChar8X8,tblptrl
  2796  0076D6  C005  FFF7         	movff	??_glcd_WriteChar8X8+1,tblptrh
  2797  0076DA                     	if	0	;tblptru may be non-zero
  2798  0076DA                     	endif
  2799  0076DA                     	if	0	;tblptru may be non-zero
  2800  0076DA                     	endif
  2801  0076DA  0008               	tblrd		*
  2802  0076DC  CFF5 F001          	movff	tablat,glcd_WriteByte@data
  2803  0076E0  500B               	movf	glcd_WriteChar8X8@side^0,w,c
  2804  0076E2  EC5E  F039         	call	_glcd_WriteByte
  2805  0076E6  EF8C  F03B         	goto	l1238
  2806  0076EA                     l1236:
  2807                           
  2808                           ;glcd.c: 612:           glcd_WriteByte(side,~(Font8x8[chr+i]));
  2809  0076EA  0E33               	movlw	low _Font8x8
  2810  0076EC  6E04               	movwf	??_glcd_WriteChar8X8^0,c
  2811  0076EE  0E77               	movlw	high _Font8x8
  2812  0076F0  6E05               	movwf	(??_glcd_WriteChar8X8+1)^0,c
  2813  0076F2  500A               	movf	glcd_WriteChar8X8@i^0,w,c
  2814  0076F4  2604               	addwf	??_glcd_WriteChar8X8^0,f,c
  2815  0076F6  0E00               	movlw	0
  2816  0076F8  2205               	addwfc	(??_glcd_WriteChar8X8+1)^0,f,c
  2817  0076FA  5006               	movf	glcd_WriteChar8X8@chr^0,w,c
  2818  0076FC  2604               	addwf	??_glcd_WriteChar8X8^0,f,c
  2819  0076FE  5007               	movf	(glcd_WriteChar8X8@chr+1)^0,w,c
  2820  007700  2205               	addwfc	(??_glcd_WriteChar8X8+1)^0,f,c
  2821  007702  C004  FFF6         	movff	??_glcd_WriteChar8X8,tblptrl
  2822  007706  C005  FFF7         	movff	??_glcd_WriteChar8X8+1,tblptrh
  2823  00770A                     	if	0	;tblptru may be non-zero
  2824  00770A                     	endif
  2825  00770A                     	if	0	;tblptru may be non-zero
  2826  00770A                     	endif
  2827  00770A  0008               	tblrd		*
  2828  00770C  50F5               	movf	tablat,w,c
  2829  00770E  0AFF               	xorlw	255
  2830  007710  6E01               	movwf	glcd_WriteByte@data^0,c
  2831  007712  500B               	movf	glcd_WriteChar8X8@side^0,w,c
  2832  007714  EC5E  F039         	call	_glcd_WriteByte
  2833  007718                     l1238:
  2834                           
  2835                           ;glcd.c: 613:         xpos++;
  2836  007718  2A09               	incf	glcd_WriteChar8X8@xpos^0,f,c
  2837  00771A                     
  2838                           ;glcd.c: 614:      }
  2839  00771A  2A0A               	incf	glcd_WriteChar8X8@i^0,f,c
  2840  00771C  0E07               	movlw	7
  2841  00771E  640A               	cpfsgt	glcd_WriteChar8X8@i^0,c
  2842  007720  EF94  F03B         	goto	u411
  2843  007724  EF96  F03B         	goto	u410
  2844  007728                     u411:
  2845  007728  EF3B  F03B         	goto	l1218
  2846  00772C                     u410:
  2847  00772C                     
  2848                           ;glcd.c: 615:    x+=8;
  2849  00772C  0E08               	movlw	8
  2850  00772E  2611               	addwf	_x^0,f,c
  2851  007730                     l109:
  2852  007730  0012               	return		;funcret
  2853  007732                     __end_of_glcd_WriteChar8X8:
  2854                           	callstack 0
  2855                           
  2856 ;; *************** function _glcd_WriteChar3x6 *****************
  2857 ;; Defined at:
  2858 ;;		line 622 in file "glcd.c"
  2859 ;; Parameters:    Size  Location     Type
  2860 ;;  ch              1    wreg     unsigned char 
  2861 ;;  color           1    2[COMRAM] unsigned char 
  2862 ;; Auto vars:     Size  Location     Type
  2863 ;;  ch              1    6[COMRAM] unsigned char 
  2864 ;;  side            1    8[COMRAM] unsigned char 
  2865 ;;  i               1    7[COMRAM] unsigned char 
  2866 ;;  xpos            1    5[COMRAM] unsigned char 
  2867 ;; Return value:  Size  Location     Type
  2868 ;;                  1    wreg      void 
  2869 ;; Registers used:
  2870 ;;		wreg, status,2, status,0, tblptrl, tblptrh, tblptru, prodl, prodh, cstack
  2871 ;; Tracked objects:
  2872 ;;		On entry : 0/0
  2873 ;;		On exit  : 0/0
  2874 ;;		Unchanged: 0/0
  2875 ;; Data sizes:     COMRAM   BANK0   BANK1   BANK2   BANK3   BANK4   BANK5   BANK6   BANK7
  2876 ;;      Params:         1       0       0       0       0       0       0       0       0
  2877 ;;      Locals:         4       0       0       0       0       0       0       0       0
  2878 ;;      Temps:          2       0       0       0       0       0       0       0       0
  2879 ;;      Totals:         7       0       0       0       0       0       0       0       0
  2880 ;;Total ram usage:        7 bytes
  2881 ;; Hardware stack levels used: 1
  2882 ;; Hardware stack levels required when called: 1
  2883 ;; This function calls:
  2884 ;;		_glcd_WriteByte
  2885 ;; This function is called by:
  2886 ;;		_glcd_WriteString
  2887 ;; This function uses a non-reentrant model
  2888 ;;
  2889                           
  2890                           	psect	text3
  2891  007512                     __ptext3:
  2892                           	callstack 0
  2893  007512                     _glcd_WriteChar3x6:
  2894                           	callstack 28
  2895                           
  2896                           ;incstack = 0
  2897                           ;glcd_WriteChar3x6@ch stored from wreg
  2898  007512  6E07               	movwf	glcd_WriteChar3x6@ch^0,c
  2899  007514                     
  2900                           ;glcd.c: 622: void glcd_WriteChar3x6(unsigned char ch, unsigned char color);glcd.c: 623:
      +                           {;glcd.c: 624:    unsigned char i,xpos;;glcd.c: 625:    unsigned char side = 0;
  2901  007514  0E00               	movlw	0
  2902  007516  6E09               	movwf	glcd_WriteChar3x6@side^0,c
  2903  007518                     
  2904                           ;glcd.c: 627:    if (ch=='\n')
  2905  007518  0E0A               	movlw	10
  2906  00751A  1807               	xorwf	glcd_WriteChar3x6@ch^0,w,c
  2907  00751C  A4D8               	btfss	status,2,c
  2908  00751E  EF93  F03A         	goto	u421
  2909  007522  EF95  F03A         	goto	u420
  2910  007526                     u421:
  2911  007526  EF9A  F03A         	goto	l1256
  2912  00752A                     u420:
  2913  00752A                     
  2914                           ;glcd.c: 628:      {;glcd.c: 629:         x=0;
  2915  00752A  0E00               	movlw	0
  2916  00752C  6E11               	movwf	_x^0,c
  2917  00752E                     
  2918                           ;glcd.c: 630:         y++;
  2919  00752E  2A10               	incf	_y^0,f,c
  2920  007530  EF10  F03B         	goto	l120
  2921  007534                     l1256:
  2922                           
  2923                           ;glcd.c: 634:    if(x > 63)
  2924  007534  0E3F               	movlw	63
  2925  007536  6411               	cpfsgt	_x^0,c
  2926  007538  EFA0  F03A         	goto	u431
  2927  00753C  EFA2  F03A         	goto	u430
  2928  007540                     u431:
  2929  007540  EFA9  F03A         	goto	l121
  2930  007544                     u430:
  2931  007544                     
  2932                           ;glcd.c: 635:      {;glcd.c: 636:         side = 1;
  2933  007544  0E01               	movlw	1
  2934  007546  6E09               	movwf	glcd_WriteChar3x6@side^0,c
  2935  007548                     
  2936                           ;glcd.c: 637:         xpos=x-64;
  2937  007548  5011               	movf	_x^0,w,c
  2938  00754A  0FC0               	addlw	192
  2939  00754C  6E06               	movwf	glcd_WriteChar3x6@xpos^0,c
  2940                           
  2941                           ;glcd.c: 638:      }
  2942  00754E  EFAB  F03A         	goto	l1262
  2943  007552                     l121:
  2944                           
  2945                           ;glcd.c: 640:      xpos=x;
  2946  007552  C011  F006         	movff	_x,glcd_WriteChar3x6@xpos
  2947  007556                     l1262:
  2948                           
  2949                           ;glcd.c: 642:    ch -= 32;
  2950  007556  0E20               	movlw	32
  2951  007558  5E07               	subwf	glcd_WriteChar3x6@ch^0,f,c
  2952  00755A                     
  2953                           ;glcd.c: 644:    for(i = 0; i < 3; i++)
  2954  00755A  0E00               	movlw	0
  2955  00755C  6E08               	movwf	glcd_WriteChar3x6@i^0,c
  2956  00755E                     l1270:
  2957                           
  2958                           ;glcd.c: 645:      {;glcd.c: 646:         if(xpos > 63)
  2959  00755E  0E3F               	movlw	63
  2960  007560  6406               	cpfsgt	glcd_WriteChar3x6@xpos^0,c
  2961  007562  EFB5  F03A         	goto	u441
  2962  007566  EFB7  F03A         	goto	u440
  2963  00756A                     u441:
  2964  00756A  EFC9  F03A         	goto	l1284
  2965  00756E                     u440:
  2966  00756E                     
  2967                           ;glcd.c: 647:           {;glcd.c: 648:              xpos -= 64;
  2968  00756E  0E40               	movlw	64
  2969  007570  5E06               	subwf	glcd_WriteChar3x6@xpos^0,f,c
  2970  007572                     
  2971                           ;glcd.c: 649:              side = 1;
  2972  007572  0E01               	movlw	1
  2973  007574  6E09               	movwf	glcd_WriteChar3x6@side^0,c
  2974  007576                     
  2975                           ;glcd.c: 650:              LATBbits.LATB2=0;
  2976  007576  948A               	bcf	138,2,c	;volatile
  2977  007578                     
  2978                           ;glcd.c: 651:              glcd_WriteByte(side, 0x40 | xpos);
  2979  007578  5006               	movf	glcd_WriteChar3x6@xpos^0,w,c
  2980  00757A  0940               	iorlw	64
  2981  00757C  6E01               	movwf	glcd_WriteByte@data^0,c
  2982  00757E  0E01               	movlw	1
  2983  007580  EC5E  F039         	call	_glcd_WriteByte
  2984  007584                     
  2985                           ;glcd.c: 652:              glcd_WriteByte(side, 0xB8 | y);
  2986  007584  5010               	movf	_y^0,w,c
  2987  007586  09B8               	iorlw	184
  2988  007588  6E01               	movwf	glcd_WriteByte@data^0,c
  2989  00758A  0E01               	movlw	1
  2990  00758C  EC5E  F039         	call	_glcd_WriteByte
  2991  007590                     
  2992                           ;glcd.c: 653:              LATBbits.LATB2=1;
  2993  007590  848A               	bsf	138,2,c	;volatile
  2994  007592                     l1284:
  2995                           
  2996                           ;glcd.c: 655:         if(color)
  2997  007592  5003               	movf	glcd_WriteChar3x6@color^0,w,c
  2998  007594  B4D8               	btfsc	status,2,c
  2999  007596  EFCF  F03A         	goto	u451
  3000  00759A  EFD1  F03A         	goto	u450
  3001  00759E                     u451:
  3002  00759E  EFEB  F03A         	goto	l1288
  3003  0075A2                     u450:
  3004  0075A2                     
  3005                           ;glcd.c: 656:           glcd_WriteByte(side,Font3x6[ch][i]);
  3006  0075A2  5007               	movf	glcd_WriteChar3x6@ch^0,w,c
  3007  0075A4  0D03               	mullw	3
  3008  0075A6  0E33               	movlw	low _Font3x6
  3009  0075A8  6E04               	movwf	??_glcd_WriteChar3x6^0,c
  3010  0075AA  0E7F               	movlw	high _Font3x6
  3011  0075AC  6E05               	movwf	(??_glcd_WriteChar3x6+1)^0,c
  3012  0075AE  50F3               	movf	243,w,c
  3013  0075B0  2604               	addwf	??_glcd_WriteChar3x6^0,f,c
  3014  0075B2  50F4               	movf	244,w,c
  3015  0075B4  2205               	addwfc	(??_glcd_WriteChar3x6+1)^0,f,c
  3016  0075B6  5008               	movf	glcd_WriteChar3x6@i^0,w,c
  3017  0075B8  2604               	addwf	??_glcd_WriteChar3x6^0,f,c
  3018  0075BA  0E00               	movlw	0
  3019  0075BC  2205               	addwfc	(??_glcd_WriteChar3x6+1)^0,f,c
  3020  0075BE  C004  FFF6         	movff	??_glcd_WriteChar3x6,tblptrl
  3021  0075C2  C005  FFF7         	movff	??_glcd_WriteChar3x6+1,tblptrh
  3022  0075C6                     	if	0	;tblptru may be non-zero
  3023  0075C6                     	endif
  3024  0075C6                     	if	0	;tblptru may be non-zero
  3025  0075C6                     	endif
  3026  0075C6  0008               	tblrd		*
  3027  0075C8  CFF5 F001          	movff	tablat,glcd_WriteByte@data
  3028  0075CC  5009               	movf	glcd_WriteChar3x6@side^0,w,c
  3029  0075CE  EC5E  F039         	call	_glcd_WriteByte
  3030  0075D2  EF04  F03B         	goto	l1290
  3031  0075D6                     l1288:
  3032                           
  3033                           ;glcd.c: 658:           glcd_WriteByte(side,~(Font3x6[ch][i]));
  3034  0075D6  5007               	movf	glcd_WriteChar3x6@ch^0,w,c
  3035  0075D8  0D03               	mullw	3
  3036  0075DA  0E33               	movlw	low _Font3x6
  3037  0075DC  6E04               	movwf	??_glcd_WriteChar3x6^0,c
  3038  0075DE  0E7F               	movlw	high _Font3x6
  3039  0075E0  6E05               	movwf	(??_glcd_WriteChar3x6+1)^0,c
  3040  0075E2  50F3               	movf	243,w,c
  3041  0075E4  2604               	addwf	??_glcd_WriteChar3x6^0,f,c
  3042  0075E6  50F4               	movf	244,w,c
  3043  0075E8  2205               	addwfc	(??_glcd_WriteChar3x6+1)^0,f,c
  3044  0075EA  5008               	movf	glcd_WriteChar3x6@i^0,w,c
  3045  0075EC  2604               	addwf	??_glcd_WriteChar3x6^0,f,c
  3046  0075EE  0E00               	movlw	0
  3047  0075F0  2205               	addwfc	(??_glcd_WriteChar3x6+1)^0,f,c
  3048  0075F2  C004  FFF6         	movff	??_glcd_WriteChar3x6,tblptrl
  3049  0075F6  C005  FFF7         	movff	??_glcd_WriteChar3x6+1,tblptrh
  3050  0075FA                     	if	0	;tblptru may be non-zero
  3051  0075FA                     	endif
  3052  0075FA                     	if	0	;tblptru may be non-zero
  3053  0075FA                     	endif
  3054  0075FA  0008               	tblrd		*
  3055  0075FC  50F5               	movf	tablat,w,c
  3056  0075FE  0AFF               	xorlw	255
  3057  007600  6E01               	movwf	glcd_WriteByte@data^0,c
  3058  007602  5009               	movf	glcd_WriteChar3x6@side^0,w,c
  3059  007604  EC5E  F039         	call	_glcd_WriteByte
  3060  007608                     l1290:
  3061                           
  3062                           ;glcd.c: 659:         xpos++;
  3063  007608  2A06               	incf	glcd_WriteChar3x6@xpos^0,f,c
  3064  00760A                     
  3065                           ;glcd.c: 660:      }
  3066  00760A  2A08               	incf	glcd_WriteChar3x6@i^0,f,c
  3067  00760C  0E02               	movlw	2
  3068  00760E  6408               	cpfsgt	glcd_WriteChar3x6@i^0,c
  3069  007610  EF0C  F03B         	goto	u461
  3070  007614  EF0E  F03B         	goto	u460
  3071  007618                     u461:
  3072  007618  EFAF  F03A         	goto	l1270
  3073  00761C                     u460:
  3074  00761C                     
  3075                           ;glcd.c: 661:    x+=5;
  3076  00761C  0E05               	movlw	5
  3077  00761E  2611               	addwf	_x^0,f,c
  3078  007620                     l120:
  3079  007620  0012               	return		;funcret
  3080  007622                     __end_of_glcd_WriteChar3x6:
  3081                           	callstack 0
  3082                           
  3083 ;; *************** function _glcd_SetCursor *****************
  3084 ;; Defined at:
  3085 ;;		line 549 in file "glcd.c"
  3086 ;; Parameters:    Size  Location     Type
  3087 ;;  xpos            1    wreg     unsigned char 
  3088 ;;  ypos            1    2[COMRAM] unsigned char 
  3089 ;; Auto vars:     Size  Location     Type
  3090 ;;  xpos            1    4[COMRAM] unsigned char 
  3091 ;;  side            1    3[COMRAM] unsigned char 
  3092 ;; Return value:  Size  Location     Type
  3093 ;;                  1    wreg      void 
  3094 ;; Registers used:
  3095 ;;		wreg, status,2, status,0, cstack
  3096 ;; Tracked objects:
  3097 ;;		On entry : 0/0
  3098 ;;		On exit  : 0/0
  3099 ;;		Unchanged: 0/0
  3100 ;; Data sizes:     COMRAM   BANK0   BANK1   BANK2   BANK3   BANK4   BANK5   BANK6   BANK7
  3101 ;;      Params:         1       0       0       0       0       0       0       0       0
  3102 ;;      Locals:         2       0       0       0       0       0       0       0       0
  3103 ;;      Temps:          0       0       0       0       0       0       0       0       0
  3104 ;;      Totals:         3       0       0       0       0       0       0       0       0
  3105 ;;Total ram usage:        3 bytes
  3106 ;; Hardware stack levels used: 1
  3107 ;; Hardware stack levels required when called: 1
  3108 ;; This function calls:
  3109 ;;		_glcd_WriteByte
  3110 ;; This function is called by:
  3111 ;;		_main
  3112 ;;		_glcd_text_write
  3113 ;; This function uses a non-reentrant model
  3114 ;;
  3115                           
  3116                           	psect	text4
  3117  007360                     __ptext4:
  3118                           	callstack 0
  3119  007360                     _glcd_SetCursor:
  3120                           	callstack 29
  3121                           
  3122                           ;incstack = 0
  3123                           ;glcd_SetCursor@xpos stored from wreg
  3124  007360  6E05               	movwf	glcd_SetCursor@xpos^0,c
  3125  007362                     
  3126                           ;glcd.c: 549: void glcd_SetCursor(unsigned char xpos,unsigned char ypos);glcd.c: 550: {;
      +                          glcd.c: 551:    unsigned char side = 0;
  3127  007362  0E00               	movlw	0
  3128  007364  6E04               	movwf	glcd_SetCursor@side^0,c
  3129  007366                     
  3130                           ;glcd.c: 553:    if(xpos > 127 | ypos > 7)
  3131  007366  0E80               	movlw	128
  3132  007368  6005               	cpfslt	glcd_SetCursor@xpos^0,c
  3133  00736A  EFB9  F039         	goto	u481
  3134  00736E  EFBB  F039         	goto	u480
  3135  007372                     u481:
  3136  007372  EFE3  F039         	goto	l104
  3137  007376                     u480:
  3138  007376  0E07               	movlw	7
  3139  007378  6403               	cpfsgt	glcd_SetCursor@ypos^0,c
  3140  00737A  EFC1  F039         	goto	u491
  3141  00737E  EFC3  F039         	goto	u490
  3142  007382                     u491:
  3143  007382  EFC5  F039         	goto	l101
  3144  007386                     u490:
  3145  007386  EFE3  F039         	goto	l104
  3146  00738A                     l101:
  3147                           
  3148                           ;glcd.c: 556:    x = xpos;
  3149  00738A  C005  F011         	movff	glcd_SetCursor@xpos,_x
  3150                           
  3151                           ;glcd.c: 557:    y = ypos;
  3152  00738E  C003  F010         	movff	glcd_SetCursor@ypos,_y
  3153  007392                     
  3154                           ;glcd.c: 559:    if(xpos > 63)
  3155  007392  0E3F               	movlw	63
  3156  007394  6405               	cpfsgt	glcd_SetCursor@xpos^0,c
  3157  007396  EFCF  F039         	goto	u501
  3158  00739A  EFD1  F039         	goto	u500
  3159  00739E                     u501:
  3160  00739E  EFD5  F039         	goto	l1356
  3161  0073A2                     u500:
  3162  0073A2                     
  3163                           ;glcd.c: 560:      {;glcd.c: 561:         xpos -= 64;
  3164  0073A2  0E40               	movlw	64
  3165  0073A4  5E05               	subwf	glcd_SetCursor@xpos^0,f,c
  3166  0073A6                     
  3167                           ;glcd.c: 562:         side = 1;
  3168  0073A6  0E01               	movlw	1
  3169  0073A8  6E04               	movwf	glcd_SetCursor@side^0,c
  3170  0073AA                     l1356:
  3171                           
  3172                           ;glcd.c: 565:    LATBbits.LATB2=0;
  3173  0073AA  948A               	bcf	138,2,c	;volatile
  3174  0073AC                     
  3175                           ;glcd.c: 566:    glcd_WriteByte(side, 0x40 | xpos);
  3176  0073AC  5005               	movf	glcd_SetCursor@xpos^0,w,c
  3177  0073AE  0940               	iorlw	64
  3178  0073B0  6E01               	movwf	glcd_WriteByte@data^0,c
  3179  0073B2  5004               	movf	glcd_SetCursor@side^0,w,c
  3180  0073B4  EC5E  F039         	call	_glcd_WriteByte
  3181  0073B8                     
  3182                           ;glcd.c: 567:    glcd_WriteByte(side, 0xB8 | ypos);
  3183  0073B8  5003               	movf	glcd_SetCursor@ypos^0,w,c
  3184  0073BA  09B8               	iorlw	184
  3185  0073BC  6E01               	movwf	glcd_WriteByte@data^0,c
  3186  0073BE  5004               	movf	glcd_SetCursor@side^0,w,c
  3187  0073C0  EC5E  F039         	call	_glcd_WriteByte
  3188  0073C4                     
  3189                           ;glcd.c: 568:    LATBbits.LATB2=1;
  3190  0073C4  848A               	bsf	138,2,c	;volatile
  3191  0073C6                     l104:
  3192  0073C6  0012               	return		;funcret
  3193  0073C8                     __end_of_glcd_SetCursor:
  3194                           	callstack 0
  3195                           
  3196 ;; *************** function _glcd_Init *****************
  3197 ;; Defined at:
  3198 ;;		line 339 in file "glcd.c"
  3199 ;; Parameters:    Size  Location     Type
  3200 ;;  mode            1    wreg     unsigned char 
  3201 ;; Auto vars:     Size  Location     Type
  3202 ;;  mode            1    6[COMRAM] unsigned char 
  3203 ;;  k               1    0        unsigned char 
  3204 ;;  j               1    0        unsigned char 
  3205 ;;  i               1    0        unsigned char 
  3206 ;; Return value:  Size  Location     Type
  3207 ;;                  1    wreg      void 
  3208 ;; Registers used:
  3209 ;;		wreg, status,2, status,0, prodl, prodh, cstack
  3210 ;; Tracked objects:
  3211 ;;		On entry : 0/0
  3212 ;;		On exit  : 0/0
  3213 ;;		Unchanged: 0/0
  3214 ;; Data sizes:     COMRAM   BANK0   BANK1   BANK2   BANK3   BANK4   BANK5   BANK6   BANK7
  3215 ;;      Params:         0       0       0       0       0       0       0       0       0
  3216 ;;      Locals:         1       0       0       0       0       0       0       0       0
  3217 ;;      Temps:          1       0       0       0       0       0       0       0       0
  3218 ;;      Totals:         2       0       0       0       0       0       0       0       0
  3219 ;;Total ram usage:        2 bytes
  3220 ;; Hardware stack levels used: 1
  3221 ;; Hardware stack levels required when called: 2
  3222 ;; This function calls:
  3223 ;;		_glcd_FillScreen
  3224 ;;		_glcd_WriteByte
  3225 ;; This function is called by:
  3226 ;;		_main
  3227 ;; This function uses a non-reentrant model
  3228 ;;
  3229                           
  3230                           	psect	text5
  3231  007448                     __ptext5:
  3232                           	callstack 0
  3233  007448                     _glcd_Init:
  3234                           	callstack 28
  3235                           
  3236                           ;incstack = 0
  3237                           ;glcd_Init@mode stored from wreg
  3238  007448  6E07               	movwf	glcd_Init@mode^0,c
  3239  00744A                     
  3240                           ;glcd.c: 339: void glcd_Init(unsigned char mode);glcd.c: 340: {;glcd.c: 341:    TRISA = 
      +                          0xFF;
  3241  00744A  6892               	setf	146,c	;volatile
  3242  00744C                     
  3243                           ;glcd.c: 342:    PORTA = 0x00;
  3244  00744C  0E00               	movlw	0
  3245  00744E  6E80               	movwf	128,c	;volatile
  3246                           
  3247                           ;glcd.c: 343:    ADCON1 = 0x0F;
  3248  007450  0E0F               	movlw	15
  3249  007452  6EC1               	movwf	193,c	;volatile
  3250                           
  3251                           ;glcd.c: 345:    TRISB = 0x00;
  3252  007454  0E00               	movlw	0
  3253  007456  6E93               	movwf	147,c	;volatile
  3254                           
  3255                           ;glcd.c: 346:    PORTB = 0x00;
  3256  007458  0E00               	movlw	0
  3257  00745A  6E81               	movwf	129,c	;volatile
  3258                           
  3259                           ;glcd.c: 348:    TRISD = 0x00;
  3260  00745C  0E00               	movlw	0
  3261  00745E  6E95               	movwf	149,c	;volatile
  3262                           
  3263                           ;glcd.c: 349:    PORTD = 0x00;
  3264  007460  0E00               	movlw	0
  3265  007462  6E83               	movwf	131,c	;volatile
  3266                           
  3267                           ;glcd.c: 351:    unsigned char i, j, k;;glcd.c: 354:    PORTD = 0x00;
  3268  007464  0E00               	movlw	0
  3269  007466  6E83               	movwf	131,c	;volatile
  3270  007468                     
  3271                           ;glcd.c: 355:    LATBbits.LATB5 = 0;
  3272  007468  9A8A               	bcf	138,5,c	;volatile
  3273  00746A                     
  3274                           ;glcd.c: 357:    _delay((unsigned long)((1500)*(100000/4000.0)));
  3275  00746A  0E31               	movlw	49
  3276  00746C  6E06               	movwf	??_glcd_Init^0,c
  3277  00746E  0EB2               	movlw	178
  3278  007470                     u657:
  3279  007470  2EE8               	decfsz	wreg,f,c
  3280  007472  D7FE               	bra	u657
  3281  007474  2E06               	decfsz	??_glcd_Init^0,f,c
  3282  007476  D7FC               	bra	u657
  3283  007478  D000               	nop2	
  3284  00747A                     
  3285                           ;glcd.c: 358:    LATBbits.LATB5 = 1;
  3286  00747A  8A8A               	bsf	138,5,c	;volatile
  3287  00747C                     
  3288                           ;glcd.c: 360:    LATBbits.LATB4=0;
  3289  00747C  988A               	bcf	138,4,c	;volatile
  3290  00747E                     
  3291                           ;glcd.c: 361:    LATBbits.LATB0=0;
  3292  00747E  908A               	bcf	138,0,c	;volatile
  3293  007480                     
  3294                           ;glcd.c: 362:    LATBbits.LATB1=0;
  3295  007480  928A               	bcf	138,1,c	;volatile
  3296  007482                     
  3297                           ;glcd.c: 363:    LATBbits.LATB2=0;
  3298  007482  948A               	bcf	138,2,c	;volatile
  3299  007484                     
  3300                           ;glcd.c: 366:    _delay((unsigned long)((10)*(100000/4000.0)));
  3301  007484  0E53               	movlw	83
  3302  007486                     u667:
  3303  007486  2EE8               	decfsz	wreg,f,c
  3304  007488  D7FE               	bra	u667
  3305  00748A  F000               	nop	
  3306  00748C                     
  3307                           ;glcd.c: 367:    glcd_WriteByte(0, 0xC0);
  3308  00748C  0EC0               	movlw	192
  3309  00748E  6E01               	movwf	glcd_WriteByte@data^0,c
  3310  007490  0E00               	movlw	0
  3311  007492  EC5E  F039         	call	_glcd_WriteByte
  3312  007496                     
  3313                           ;glcd.c: 368:    glcd_WriteByte(1, 0xC0);
  3314  007496  0EC0               	movlw	192
  3315  007498  6E01               	movwf	glcd_WriteByte@data^0,c
  3316  00749A  0E01               	movlw	1
  3317  00749C  EC5E  F039         	call	_glcd_WriteByte
  3318  0074A0                     
  3319                           ;glcd.c: 369:    glcd_WriteByte(0, 0x40);
  3320  0074A0  0E40               	movlw	64
  3321  0074A2  6E01               	movwf	glcd_WriteByte@data^0,c
  3322  0074A4  0E00               	movlw	0
  3323  0074A6  EC5E  F039         	call	_glcd_WriteByte
  3324  0074AA                     
  3325                           ;glcd.c: 370:    glcd_WriteByte(1, 0x40);
  3326  0074AA  0E40               	movlw	64
  3327  0074AC  6E01               	movwf	glcd_WriteByte@data^0,c
  3328  0074AE  0E01               	movlw	1
  3329  0074B0  EC5E  F039         	call	_glcd_WriteByte
  3330  0074B4                     
  3331                           ;glcd.c: 371:    glcd_WriteByte(0, 0xB8);
  3332  0074B4  0EB8               	movlw	184
  3333  0074B6  6E01               	movwf	glcd_WriteByte@data^0,c
  3334  0074B8  0E00               	movlw	0
  3335  0074BA  EC5E  F039         	call	_glcd_WriteByte
  3336  0074BE                     
  3337                           ;glcd.c: 372:    glcd_WriteByte(1, 0xB8);
  3338  0074BE  0EB8               	movlw	184
  3339  0074C0  6E01               	movwf	glcd_WriteByte@data^0,c
  3340  0074C2  0E01               	movlw	1
  3341  0074C4  EC5E  F039         	call	_glcd_WriteByte
  3342  0074C8                     
  3343                           ;glcd.c: 374:    if(mode == 1)
  3344  0074C8  0407               	decf	glcd_Init@mode^0,w,c
  3345  0074CA  A4D8               	btfss	status,2,c
  3346  0074CC  EF6A  F03A         	goto	u471
  3347  0074D0  EF6C  F03A         	goto	u470
  3348  0074D4                     u471:
  3349  0074D4  EF7B  F03A         	goto	l1340
  3350  0074D8                     u470:
  3351  0074D8                     
  3352                           ;glcd.c: 375:      {;glcd.c: 376:        TRISA = 0x00;
  3353  0074D8  0E00               	movlw	0
  3354  0074DA  6E92               	movwf	146,c	;volatile
  3355  0074DC                     
  3356                           ;glcd.c: 377:        PORTA = 0xFF;
  3357  0074DC  6880               	setf	128,c	;volatile
  3358  0074DE                     
  3359                           ;glcd.c: 378:         glcd_WriteByte(0, 0x3F);
  3360  0074DE  0E3F               	movlw	63
  3361  0074E0  6E01               	movwf	glcd_WriteByte@data^0,c
  3362  0074E2  0E00               	movlw	0
  3363  0074E4  EC5E  F039         	call	_glcd_WriteByte
  3364  0074E8                     
  3365                           ;glcd.c: 379:         glcd_WriteByte(1, 0x3F);
  3366  0074E8  0E3F               	movlw	63
  3367  0074EA  6E01               	movwf	glcd_WriteByte@data^0,c
  3368  0074EC  0E01               	movlw	1
  3369  0074EE  EC5E  F039         	call	_glcd_WriteByte
  3370                           
  3371                           ;glcd.c: 380:      }
  3372  0074F2  EF85  F03A         	goto	l1342
  3373  0074F6                     l1340:
  3374                           
  3375                           ;glcd.c: 382:      {;glcd.c: 383:         glcd_WriteByte(0, 0x3E);
  3376  0074F6  0E3E               	movlw	62
  3377  0074F8  6E01               	movwf	glcd_WriteByte@data^0,c
  3378  0074FA  0E00               	movlw	0
  3379  0074FC  EC5E  F039         	call	_glcd_WriteByte
  3380                           
  3381                           ;glcd.c: 384:         glcd_WriteByte(1, 0x3E);
  3382  007500  0E3E               	movlw	62
  3383  007502  6E01               	movwf	glcd_WriteByte@data^0,c
  3384  007504  0E01               	movlw	1
  3385  007506  EC5E  F039         	call	_glcd_WriteByte
  3386  00750A                     l1342:
  3387                           
  3388                           ;glcd.c: 387:    glcd_FillScreen(0);
  3389  00750A  0E00               	movlw	0
  3390  00750C  ECE4  F039         	call	_glcd_FillScreen
  3391  007510  0012               	return		;funcret
  3392  007512                     __end_of_glcd_Init:
  3393                           	callstack 0
  3394                           
  3395 ;; *************** function _glcd_FillScreen *****************
  3396 ;; Defined at:
  3397 ;;		line 525 in file "glcd.c"
  3398 ;; Parameters:    Size  Location     Type
  3399 ;;  color           1    wreg     unsigned char 
  3400 ;; Auto vars:     Size  Location     Type
  3401 ;;  color           1    2[COMRAM] unsigned char 
  3402 ;;  i               1    4[COMRAM] unsigned char 
  3403 ;;  j               1    3[COMRAM] unsigned char 
  3404 ;; Return value:  Size  Location     Type
  3405 ;;                  1    wreg      void 
  3406 ;; Registers used:
  3407 ;;		wreg, status,2, status,0, prodl, prodh, cstack
  3408 ;; Tracked objects:
  3409 ;;		On entry : 0/0
  3410 ;;		On exit  : 0/0
  3411 ;;		Unchanged: 0/0
  3412 ;; Data sizes:     COMRAM   BANK0   BANK1   BANK2   BANK3   BANK4   BANK5   BANK6   BANK7
  3413 ;;      Params:         0       0       0       0       0       0       0       0       0
  3414 ;;      Locals:         3       0       0       0       0       0       0       0       0
  3415 ;;      Temps:          0       0       0       0       0       0       0       0       0
  3416 ;;      Totals:         3       0       0       0       0       0       0       0       0
  3417 ;;Total ram usage:        3 bytes
  3418 ;; Hardware stack levels used: 1
  3419 ;; Hardware stack levels required when called: 1
  3420 ;; This function calls:
  3421 ;;		_glcd_WriteByte
  3422 ;; This function is called by:
  3423 ;;		_main
  3424 ;;		_glcd_Init
  3425 ;; This function uses a non-reentrant model
  3426 ;;
  3427                           
  3428                           	psect	text6
  3429  0073C8                     __ptext6:
  3430                           	callstack 0
  3431  0073C8                     _glcd_FillScreen:
  3432                           	callstack 28
  3433                           
  3434                           ;incstack = 0
  3435                           ;glcd_FillScreen@color stored from wreg
  3436  0073C8  6E03               	movwf	glcd_FillScreen@color^0,c
  3437  0073CA                     
  3438                           ;glcd.c: 525: void glcd_FillScreen(unsigned char color);glcd.c: 526: {;glcd.c: 527:    u
      +                          nsigned char i, j;;glcd.c: 529:    for(i = 0; i < 8; i ++)
  3439  0073CA  0E00               	movlw	0
  3440  0073CC  6E05               	movwf	glcd_FillScreen@i^0,c
  3441  0073CE                     l94:
  3442                           
  3443                           ;glcd.c: 530:      {;glcd.c: 531:         LATBbits.LATB2=0;
  3444  0073CE  948A               	bcf	138,2,c	;volatile
  3445  0073D0                     
  3446                           ;glcd.c: 532:         glcd_WriteByte(0, 0b01000000);
  3447  0073D0  0E40               	movlw	64
  3448  0073D2  6E01               	movwf	glcd_WriteByte@data^0,c
  3449  0073D4  0E00               	movlw	0
  3450  0073D6  EC5E  F039         	call	_glcd_WriteByte
  3451                           
  3452                           ;glcd.c: 533:         glcd_WriteByte(1, 0b01000000);
  3453  0073DA  0E40               	movlw	64
  3454  0073DC  6E01               	movwf	glcd_WriteByte@data^0,c
  3455  0073DE  0E01               	movlw	1
  3456  0073E0  EC5E  F039         	call	_glcd_WriteByte
  3457  0073E4                     
  3458                           ;glcd.c: 534:         glcd_WriteByte(0, i | 0b10111000);
  3459  0073E4  5005               	movf	glcd_FillScreen@i^0,w,c
  3460  0073E6  09B8               	iorlw	184
  3461  0073E8  6E01               	movwf	glcd_WriteByte@data^0,c
  3462  0073EA  0E00               	movlw	0
  3463  0073EC  EC5E  F039         	call	_glcd_WriteByte
  3464  0073F0                     
  3465                           ;glcd.c: 535:         glcd_WriteByte(1, i | 0b10111000);
  3466  0073F0  5005               	movf	glcd_FillScreen@i^0,w,c
  3467  0073F2  09B8               	iorlw	184
  3468  0073F4  6E01               	movwf	glcd_WriteByte@data^0,c
  3469  0073F6  0E01               	movlw	1
  3470  0073F8  EC5E  F039         	call	_glcd_WriteByte
  3471  0073FC                     
  3472                           ;glcd.c: 536:         LATBbits.LATB2=1;
  3473  0073FC  848A               	bsf	138,2,c	;volatile
  3474  0073FE                     
  3475                           ;glcd.c: 538:         for(j = 0; j < 64; j++)
  3476  0073FE  0E00               	movlw	0
  3477  007400  6E04               	movwf	glcd_FillScreen@j^0,c
  3478  007402                     l1184:
  3479                           
  3480                           ;glcd.c: 539:           {;glcd.c: 540:              glcd_WriteByte(0, 0xFF*color);
  3481  007402  5003               	movf	glcd_FillScreen@color^0,w,c
  3482  007404  0D01               	mullw	1
  3483  007406  50F3               	movf	243,w,c
  3484  007408  0800               	sublw	0
  3485  00740A  6E01               	movwf	glcd_WriteByte@data^0,c
  3486  00740C  0E00               	movlw	0
  3487  00740E  EC5E  F039         	call	_glcd_WriteByte
  3488                           
  3489                           ;glcd.c: 541:              glcd_WriteByte(1, 0xFF*color);
  3490  007412  5003               	movf	glcd_FillScreen@color^0,w,c
  3491  007414  0D01               	mullw	1
  3492  007416  50F3               	movf	243,w,c
  3493  007418  0800               	sublw	0
  3494  00741A  6E01               	movwf	glcd_WriteByte@data^0,c
  3495  00741C  0E01               	movlw	1
  3496  00741E  EC5E  F039         	call	_glcd_WriteByte
  3497  007422                     
  3498                           ;glcd.c: 542:           }
  3499  007422  2A04               	incf	glcd_FillScreen@j^0,f,c
  3500  007424  0E3F               	movlw	63
  3501  007426  6404               	cpfsgt	glcd_FillScreen@j^0,c
  3502  007428  EF18  F03A         	goto	u351
  3503  00742C  EF1A  F03A         	goto	u350
  3504  007430                     u351:
  3505  007430  EF01  F03A         	goto	l1184
  3506  007434                     u350:
  3507  007434                     
  3508                           ;glcd.c: 543:      }
  3509  007434  2A05               	incf	glcd_FillScreen@i^0,f,c
  3510  007436  0E07               	movlw	7
  3511  007438  6405               	cpfsgt	glcd_FillScreen@i^0,c
  3512  00743A  EF21  F03A         	goto	u361
  3513  00743E  EF23  F03A         	goto	u360
  3514  007442                     u361:
  3515  007442  EFE7  F039         	goto	l94
  3516  007446                     u360:
  3517  007446  0012               	return		;funcret
  3518  007448                     __end_of_glcd_FillScreen:
  3519                           	callstack 0
  3520                           
  3521 ;; *************** function _glcd_WriteByte *****************
  3522 ;; Defined at:
  3523 ;;		line 393 in file "glcd.c"
  3524 ;; Parameters:    Size  Location     Type
  3525 ;;  side            1    wreg     unsigned char 
  3526 ;;  data            1    0[COMRAM] unsigned char 
  3527 ;; Auto vars:     Size  Location     Type
  3528 ;;  side            1    1[COMRAM] unsigned char 
  3529 ;; Return value:  Size  Location     Type
  3530 ;;                  1    wreg      void 
  3531 ;; Registers used:
  3532 ;;		wreg, status,2
  3533 ;; Tracked objects:
  3534 ;;		On entry : 0/0
  3535 ;;		On exit  : 0/0
  3536 ;;		Unchanged: 0/0
  3537 ;; Data sizes:     COMRAM   BANK0   BANK1   BANK2   BANK3   BANK4   BANK5   BANK6   BANK7
  3538 ;;      Params:         1       0       0       0       0       0       0       0       0
  3539 ;;      Locals:         1       0       0       0       0       0       0       0       0
  3540 ;;      Temps:          0       0       0       0       0       0       0       0       0
  3541 ;;      Totals:         2       0       0       0       0       0       0       0       0
  3542 ;;Total ram usage:        2 bytes
  3543 ;; Hardware stack levels used: 1
  3544 ;; This function calls:
  3545 ;;		Nothing
  3546 ;; This function is called by:
  3547 ;;		_glcd_Init
  3548 ;;		_glcd_FillScreen
  3549 ;;		_glcd_SetCursor
  3550 ;;		_glcd_WriteChar8X8
  3551 ;;		_glcd_WriteChar3x6
  3552 ;;		_glcd_PlotPixel
  3553 ;; This function uses a non-reentrant model
  3554 ;;
  3555                           
  3556                           	psect	text7
  3557  0072BC                     __ptext7:
  3558                           	callstack 0
  3559  0072BC                     _glcd_WriteByte:
  3560                           	callstack 28
  3561                           
  3562                           ;incstack = 0
  3563                           ;glcd_WriteByte@side stored from wreg
  3564  0072BC  6E02               	movwf	glcd_WriteByte@side^0,c
  3565  0072BE                     
  3566                           ;glcd.c: 393: void glcd_WriteByte(unsigned char side, unsigned char data);glcd.c: 394: {
      +                          ;glcd.c: 395:    if(side)
  3567  0072BE  5002               	movf	glcd_WriteByte@side^0,w,c
  3568  0072C0  B4D8               	btfsc	status,2,c
  3569  0072C2  EF65  F039         	goto	u341
  3570  0072C6  EF67  F039         	goto	u340
  3571  0072CA                     u341:
  3572  0072CA  EF6B  F039         	goto	l64
  3573  0072CE                     u340:
  3574  0072CE                     
  3575                           ;glcd.c: 396:      {;glcd.c: 397:         LATBbits.LATB0 = 1;
  3576  0072CE  808A               	bsf	138,0,c	;volatile
  3577                           
  3578                           ;glcd.c: 398:         LATBbits.LATB1 = 0;
  3579  0072D0  928A               	bcf	138,1,c	;volatile
  3580                           
  3581                           ;glcd.c: 399:      }
  3582  0072D2  EF6D  F039         	goto	l1146
  3583  0072D6                     l64:
  3584                           
  3585                           ;glcd.c: 401:      {;glcd.c: 402:         LATBbits.LATB1 = 0;
  3586  0072D6  928A               	bcf	138,1,c	;volatile
  3587                           
  3588                           ;glcd.c: 403:         LATBbits.LATB1 = 1;
  3589  0072D8  828A               	bsf	138,1,c	;volatile
  3590  0072DA                     l1146:
  3591                           
  3592                           ;glcd.c: 406:    TRISD=0;
  3593  0072DA  0E00               	movlw	0
  3594  0072DC  6E95               	movwf	149,c	;volatile
  3595  0072DE                     
  3596                           ;glcd.c: 407:    LATBbits.LATB3=0;
  3597  0072DE  968A               	bcf	138,3,c	;volatile
  3598  0072E0                     
  3599                           ;glcd.c: 409:    LATD = data;
  3600  0072E0  C001  FF8C         	movff	glcd_WriteByte@data,3980	;volatile
  3601  0072E4                     
  3602                           ;glcd.c: 413:    LATBbits.LATB4 = 1;
  3603  0072E4  888A               	bsf	138,4,c	;volatile
  3604  0072E6                     
  3605                           ;glcd.c: 415:    _delay((unsigned long)((1)*(100000/4000.0)));
  3606  0072E6  0E08               	movlw	8
  3607  0072E8                     u677:
  3608  0072E8  2EE8               	decfsz	wreg,f,c
  3609  0072EA  D7FE               	bra	u677
  3610  0072EC  F000               	nop	
  3611  0072EE                     
  3612                           ;glcd.c: 416:    LATBbits.LATB4 = 0;
  3613  0072EE  988A               	bcf	138,4,c	;volatile
  3614  0072F0                     
  3615                           ;glcd.c: 418:    _delay((unsigned long)((1)*(100000/4000.0)));
  3616  0072F0  0E08               	movlw	8
  3617  0072F2                     u687:
  3618  0072F2  2EE8               	decfsz	wreg,f,c
  3619  0072F4  D7FE               	bra	u687
  3620  0072F6  F000               	nop	
  3621  0072F8                     
  3622                           ;glcd.c: 421:    LATBbits.LATB0 = 0;
  3623  0072F8  908A               	bcf	138,0,c	;volatile
  3624  0072FA                     
  3625                           ;glcd.c: 422:    LATBbits.LATB1 = 0;
  3626  0072FA  928A               	bcf	138,1,c	;volatile
  3627  0072FC  0012               	return		;funcret
  3628  0072FE                     __end_of_glcd_WriteByte:
  3629                           	callstack 0
  3630                           
  3631                           	psect	rparam
  3632  0000                     
  3633                           	psect	idloc
  3634                           
  3635                           ;Config register IDLOC0 @ 0x200000
  3636                           ;	unspecified, using default values
  3637  200000                     	org	2097152
  3638  200000  FF                 	db	255
  3639                           
  3640                           ;Config register IDLOC1 @ 0x200001
  3641                           ;	unspecified, using default values
  3642  200001                     	org	2097153
  3643  200001  FF                 	db	255
  3644                           
  3645                           ;Config register IDLOC2 @ 0x200002
  3646                           ;	unspecified, using default values
  3647  200002                     	org	2097154
  3648  200002  FF                 	db	255
  3649                           
  3650                           ;Config register IDLOC3 @ 0x200003
  3651                           ;	unspecified, using default values
  3652  200003                     	org	2097155
  3653  200003  FF                 	db	255
  3654                           
  3655                           ;Config register IDLOC4 @ 0x200004
  3656                           ;	unspecified, using default values
  3657  200004                     	org	2097156
  3658  200004  FF                 	db	255
  3659                           
  3660                           ;Config register IDLOC5 @ 0x200005
  3661                           ;	unspecified, using default values
  3662  200005                     	org	2097157
  3663  200005  FF                 	db	255
  3664                           
  3665                           ;Config register IDLOC6 @ 0x200006
  3666                           ;	unspecified, using default values
  3667  200006                     	org	2097158
  3668  200006  FF                 	db	255
  3669                           
  3670                           ;Config register IDLOC7 @ 0x200007
  3671                           ;	unspecified, using default values
  3672  200007                     	org	2097159
  3673  200007  FF                 	db	255
  3674                           
  3675                           	psect	config
  3676                           
  3677                           ;Config register CONFIG1L @ 0x300000
  3678                           ;	unspecified, using default values
  3679                           ;	PLL Prescaler Selection bits
  3680                           ;	PLLDIV = 0x0, unprogrammed default
  3681                           ;	System Clock Postscaler Selection bits
  3682                           ;	CPUDIV = 0x0, unprogrammed default
  3683                           ;	USB Clock Selection bit (used in Full-Speed USB mode only; UCFG:FSEN = 1)
  3684                           ;	USBDIV = 0x0, unprogrammed default
  3685  300000                     	org	3145728
  3686  300000  00                 	db	0
  3687                           
  3688                           ;Config register CONFIG1H @ 0x300001
  3689                           ;	Oscillator Selection bits
  3690                           ;	FOSC = HS, HS oscillator (HS)
  3691                           ;	Fail-Safe Clock Monitor Enable bit
  3692                           ;	FCMEN = 0x0, unprogrammed default
  3693                           ;	Internal/External Oscillator Switchover bit
  3694                           ;	IESO = 0x0, unprogrammed default
  3695  300001                     	org	3145729
  3696  300001  0C                 	db	12
  3697                           
  3698                           ;Config register CONFIG2L @ 0x300002
  3699                           ;	Power-up Timer Enable bit
  3700                           ;	PWRT = OFF, PWRT disabled
  3701                           ;	Brown-out Reset Enable bits
  3702                           ;	BOR = OFF, Brown-out Reset disabled in hardware and software
  3703                           ;	Brown-out Reset Voltage bits
  3704                           ;	BORV = 0x3, unprogrammed default
  3705                           ;	USB Voltage Regulator Enable bit
  3706                           ;	VREGEN = 0x0, unprogrammed default
  3707  300002                     	org	3145730
  3708  300002  19                 	db	25
  3709                           
  3710                           ;Config register CONFIG2H @ 0x300003
  3711                           ;	Watchdog Timer Enable bit
  3712                           ;	WDT = OFF, WDT disabled (control is placed on the SWDTEN bit)
  3713                           ;	Watchdog Timer Postscale Select bits
  3714                           ;	WDTPS = 0xF, unprogrammed default
  3715  300003                     	org	3145731
  3716  300003  1E                 	db	30
  3717                           
  3718                           ; Padding undefined space
  3719  300004                     	org	3145732
  3720  300004  FF                 	db	255
  3721                           
  3722                           ;Config register CONFIG3H @ 0x300005
  3723                           ;	unspecified, using default values
  3724                           ;	CCP2 MUX bit
  3725                           ;	CCP2MX = 0x1, unprogrammed default
  3726                           ;	PORTB A/D Enable bit
  3727                           ;	PBADEN = 0x1, unprogrammed default
  3728                           ;	Low-Power Timer 1 Oscillator Enable bit
  3729                           ;	LPT1OSC = 0x0, unprogrammed default
  3730                           ;	MCLR Pin Enable bit
  3731                           ;	MCLRE = 0x1, unprogrammed default
  3732  300005                     	org	3145733
  3733  300005  83                 	db	131
  3734                           
  3735                           ;Config register CONFIG4L @ 0x300006
  3736                           ;	Stack Full/Underflow Reset Enable bit
  3737                           ;	STVREN = 0x1, unprogrammed default
  3738                           ;	Single-Supply ICSP Enable bit
  3739                           ;	LVP = OFF, Single-Supply ICSP disabled
  3740                           ;	Dedicated In-Circuit Debug/Programming Port (ICPORT) Enable bit
  3741                           ;	ICPRT = 0x0, unprogrammed default
  3742                           ;	Extended Instruction Set Enable bit
  3743                           ;	XINST = 0x0, unprogrammed default
  3744                           ;	Background Debugger Enable bit
  3745                           ;	DEBUG = ON, Background debugger enabled, RB6 and RB7 are dedicated to In-Circuit Debug
  3746  300006                     	org	3145734
  3747  300006  01                 	db	1
  3748                           
  3749                           ; Padding undefined space
  3750  300007                     	org	3145735
  3751  300007  FF                 	db	255
  3752                           
  3753                           ;Config register CONFIG5L @ 0x300008
  3754                           ;	unspecified, using default values
  3755                           ;	Code Protection bit
  3756                           ;	CP0 = 0x1, unprogrammed default
  3757                           ;	Code Protection bit
  3758                           ;	CP1 = 0x1, unprogrammed default
  3759                           ;	Code Protection bit
  3760                           ;	CP2 = 0x1, unprogrammed default
  3761                           ;	Code Protection bit
  3762                           ;	CP3 = 0x1, unprogrammed default
  3763  300008                     	org	3145736
  3764  300008  0F                 	db	15
  3765                           
  3766                           ;Config register CONFIG5H @ 0x300009
  3767                           ;	unspecified, using default values
  3768                           ;	Boot Block Code Protection bit
  3769                           ;	CPB = 0x1, unprogrammed default
  3770                           ;	Data EEPROM Code Protection bit
  3771                           ;	CPD = 0x1, unprogrammed default
  3772  300009                     	org	3145737
  3773  300009  C0                 	db	192
  3774                           
  3775                           ;Config register CONFIG6L @ 0x30000A
  3776                           ;	unspecified, using default values
  3777                           ;	Write Protection bit
  3778                           ;	WRT0 = 0x1, unprogrammed default
  3779                           ;	Write Protection bit
  3780                           ;	WRT1 = 0x1, unprogrammed default
  3781                           ;	Write Protection bit
  3782                           ;	WRT2 = 0x1, unprogrammed default
  3783                           ;	Write Protection bit
  3784                           ;	WRT3 = 0x1, unprogrammed default
  3785  30000A                     	org	3145738
  3786  30000A  0F                 	db	15
  3787                           
  3788                           ;Config register CONFIG6H @ 0x30000B
  3789                           ;	unspecified, using default values
  3790                           ;	Configuration Register Write Protection bit
  3791                           ;	WRTC = 0x1, unprogrammed default
  3792                           ;	Boot Block Write Protection bit
  3793                           ;	WRTB = 0x1, unprogrammed default
  3794                           ;	Data EEPROM Write Protection bit
  3795                           ;	WRTD = 0x1, unprogrammed default
  3796  30000B                     	org	3145739
  3797  30000B  E0                 	db	224
  3798                           
  3799                           ;Config register CONFIG7L @ 0x30000C
  3800                           ;	unspecified, using default values
  3801                           ;	Table Read Protection bit
  3802                           ;	EBTR0 = 0x1, unprogrammed default
  3803                           ;	Table Read Protection bit
  3804                           ;	EBTR1 = 0x1, unprogrammed default
  3805                           ;	Table Read Protection bit
  3806                           ;	EBTR2 = 0x1, unprogrammed default
  3807                           ;	Table Read Protection bit
  3808                           ;	EBTR3 = 0x1, unprogrammed default
  3809  30000C                     	org	3145740
  3810  30000C  0F                 	db	15
  3811                           
  3812                           ;Config register CONFIG7H @ 0x30000D
  3813                           ;	unspecified, using default values
  3814                           ;	Boot Block Table Read Protection bit
  3815                           ;	EBTRB = 0x1, unprogrammed default
  3816  30000D                     	org	3145741
  3817  30000D  40                 	db	64
  3818                           tosu	equ	0xFFF
  3819                           tosh	equ	0xFFE
  3820                           tosl	equ	0xFFD
  3821                           stkptr	equ	0xFFC
  3822                           pclatu	equ	0xFFB
  3823                           pclath	equ	0xFFA
  3824                           pcl	equ	0xFF9
  3825                           tblptru	equ	0xFF8
  3826                           tblptrh	equ	0xFF7
  3827                           tblptrl	equ	0xFF6
  3828                           tablat	equ	0xFF5
  3829                           prodh	equ	0xFF4
  3830                           prodl	equ	0xFF3
  3831                           indf0	equ	0xFEF
  3832                           postinc0	equ	0xFEE
  3833                           postdec0	equ	0xFED
  3834                           preinc0	equ	0xFEC
  3835                           plusw0	equ	0xFEB
  3836                           fsr0h	equ	0xFEA
  3837                           fsr0l	equ	0xFE9
  3838                           wreg	equ	0xFE8
  3839                           indf1	equ	0xFE7
  3840                           postinc1	equ	0xFE6
  3841                           postdec1	equ	0xFE5
  3842                           preinc1	equ	0xFE4
  3843                           plusw1	equ	0xFE3
  3844                           fsr1h	equ	0xFE2
  3845                           fsr1l	equ	0xFE1
  3846                           bsr	equ	0xFE0
  3847                           indf2	equ	0xFDF
  3848                           postinc2	equ	0xFDE
  3849                           postdec2	equ	0xFDD
  3850                           preinc2	equ	0xFDC
  3851                           plusw2	equ	0xFDB
  3852                           fsr2h	equ	0xFDA
  3853                           fsr2l	equ	0xFD9
  3854                           status	equ	0xFD8

Data Sizes:
    Strings     8
    Constant    2243
    Data        0
    BSS         2
    Persistent  0
    Stack       0

Auto Spaces:
    Space          Size  Autos    Used
    COMRAM           95     15      17
    BANK0           160      0       0
    BANK1           256      0       0
    BANK2           256      0       0
    BANK3           256      0       0
    BANK4           256      0       0
    BANK5           256      0       0
    BANK6           256      0       0
    BANK7           256      0       0

Pointer List with Targets:

    glcd_WriteString@str	PTR const unsigned char  size(2) Largest target is 8
		 -> STR_1(CODE[8]), 


Critical Paths under _main in COMRAM

    _main->_glcd_WriteString
    _glcd_WriteString->_glcd_WriteChar8X8
    _glcd_WriteChar8X8->_glcd_WriteByte
    _glcd_WriteChar3x6->_glcd_WriteByte
    _glcd_SetCursor->_glcd_WriteByte
    _glcd_Init->_glcd_FillScreen
    _glcd_FillScreen->_glcd_WriteByte

Critical Paths under _main in BANK0

    None.

Critical Paths under _main in BANK1

    None.

Critical Paths under _main in BANK2

    None.

Critical Paths under _main in BANK3

    None.

Critical Paths under _main in BANK4

    None.

Critical Paths under _main in BANK5

    None.

Critical Paths under _main in BANK6

    None.

Critical Paths under _main in BANK7

    None.

Call Graph Tables:

 ---------------------------------------------------------------------------------
 (Depth) Function   	        Calls       Base Space   Used Autos Params    Refs
 ---------------------------------------------------------------------------------
 (0) _main                                                 0     0      0   16078
                    _glcd_FillScreen
                          _glcd_Init
                     _glcd_SetCursor
                   _glcd_WriteString
 ---------------------------------------------------------------------------------
 (1) _glcd_WriteString                                     4     0      4    6047
                                             11 COMRAM     4     0      4
                  _glcd_WriteChar3x6
                  _glcd_WriteChar8X8
 ---------------------------------------------------------------------------------
 (2) _glcd_WriteChar8X8                                    9     8      1    2740
                                              2 COMRAM     9     8      1
                     _glcd_WriteByte
 ---------------------------------------------------------------------------------
 (2) _glcd_WriteChar3x6                                    7     6      1    2718
                                              2 COMRAM     7     6      1
                     _glcd_WriteByte
 ---------------------------------------------------------------------------------
 (1) _glcd_SetCursor                                       3     2      1    2677
                                              2 COMRAM     3     2      1
                     _glcd_WriteByte
 ---------------------------------------------------------------------------------
 (1) _glcd_Init                                            5     5      0    4850
                                              5 COMRAM     2     2      0
                    _glcd_FillScreen
                     _glcd_WriteByte
 ---------------------------------------------------------------------------------
 (2) _glcd_FillScreen                                      3     3      0    2504
                                              2 COMRAM     3     3      0
                     _glcd_WriteByte
 ---------------------------------------------------------------------------------
 (3) _glcd_WriteByte                                       2     1      1    2324
                                              0 COMRAM     2     1      1
 ---------------------------------------------------------------------------------
 Estimated maximum stack depth 3
 ---------------------------------------------------------------------------------

 Call Graph Graphs:

 _main (ROOT)
   _glcd_FillScreen
     _glcd_WriteByte
   _glcd_Init
     _glcd_FillScreen
     _glcd_WriteByte
   _glcd_SetCursor
     _glcd_WriteByte
   _glcd_WriteString
     _glcd_WriteChar3x6
       _glcd_WriteByte
     _glcd_WriteChar8X8
       _glcd_WriteByte

 Address spaces:
Name               Size   Autos  Total    Cost      Usage
BIGRAM             7FF      0       0      21        0.0%
EEDATA             100      0       0       0        0.0%
BITBANK7           100      0       0      18        0.0%
BANK7              100      0       0      19        0.0%
BITBANK6           100      0       0      16        0.0%
BANK6              100      0       0      17        0.0%
BITBANK5           100      0       0      14        0.0%
BANK5              100      0       0      15        0.0%
BITBANK4           100      0       0      12        0.0%
BANK4              100      0       0      13        0.0%
BITBANK3           100      0       0      10        0.0%
BANK3              100      0       0      11        0.0%
BITBANK2           100      0       0       8        0.0%
BANK2              100      0       0       9        0.0%
BITBANK1           100      0       0       6        0.0%
BANK1              100      0       0       7        0.0%
BITBANK0            A0      0       0       4        0.0%
BANK0               A0      0       0       5        0.0%
BITCOMRAM           5F      0       0       0        0.0%
COMRAM              5F      F      11       1       17.9%
BITSFR               0      0       0     200        0.0%
SFR                  0      0       0     200        0.0%
STACK                0      0       0       2        0.0%
NULL                 0      0       0       0        0.0%
ABS                  0      0      11      20        0.0%
DATA                 0      0      11       3        0.0%
CODE                 0      0       0       0        0.0%


Microchip Technology PIC18 Macro Assembler V2.32 build 20210201212658 
Symbol Table                                                                                   Mon Nov 15 13:27:59 2021

                         _x 0011                           _y 0010                          l13 7290  
                        l61 7510                          l64 72D6                          l66 72FC  
                        l94 73CE                          l98 7446                         l101 738A  
                       l110 7662                         l104 73C6                         l120 7620  
                       l121 7552                         l109 7730                         l135 735E  
                       u400 76BA                         u401 76B6                         u410 772C  
                       u411 7728                         u340 72CE                         u500 73A2  
                       u420 752A                         u341 72CA                         u501 739E  
                       u421 7526                         u350 7434                         u430 7544  
                       u510 7312                         u351 7430                         u431 7540  
                       u511 730E                         u360 7446                         u440 756E  
                       u520 735E                         u361 7442                         u441 756A  
                       u521 735A                         u450 75A2                         u370 763A  
                       u451 759E                         u371 7636                         u460 761C  
                       u380 7654                         u461 7618                         u381 7650  
                       u470 74D8                         u390 7686                         u471 74D4  
                       u391 7682                         u480 7376                         u481 7372  
                       u490 7386                         u491 7382                         u657 7470  
                       u667 7486                         u677 72E8                         u687 72F2  
                       wreg 000FE8                        l1200 763E                        l1210 7666  
                      l1300 744C                        l1220 7686                        l1212 7672  
                      l1204 7644                        l1150 72E0                        l1142 72BE  
                      l1310 747E                        l1302 7468                        l1230 76A8  
                      l1222 768A                        l1206 7654                        l1160 72F8  
                      l1152 72E4                        l1144 72CE                        l1320 7496  
                      l1312 7480                        l1304 746A                        l1240 771A  
                      l1224 768E                        l1232 76AA                        l1208 7658  
                      l1162 72FA                        l1154 72E6                        l1146 72DA  
                      l1170 73D0                        l1330 74C8                        l1322 74A0  
                      l1314 7482                        l1306 747A                        l1250 752A  
                      l1242 771C                        l1234 76BA                        l1226 7690  
                      l1218 7676                        l1156 72EE                        l1148 72DE  
                      l1172 73E4                        l1164 73CA                        l1332 74D8  
                      l1340 74F6                        l1324 74AA                        l1316 7484  
                      l1308 747C                        l1260 7548                        l1252 752E  
                      l1244 772C                        l1236 76EA                        l1228 769C  
                      l1158 72F0                        l1190 7434                        l1174 73F0  
                      l1342 750A                        l1334 74DC                        l1326 74B4  
                      l1318 748C                        l1350 7392                        l1270 755E  
                      l1262 7556                        l1246 7514                        l1238 7718  
                      l1414 728A                        l1192 7436                        l1184 7402  
                      l1176 73FC                        l1336 74DE                        l1328 74BE  
                      l1360 73B8                        l1352 73A2                        l1344 7362  
                      l1280 7584                        l1272 756E                        l1264 755A  
                      l1256 7534                        l1248 7518                        l1416 7296  
                      l1186 7422                        l1178 73FE                        l1338 74E8  
                      l1362 73C4                        l1354 73A6                        l1346 7366  
                      l1290 7608                        l1282 7590                        l1274 7572  
                      l1258 7544                        l1194 7624                        l1370 732A  
                      l1418 72A0                        l1188 7424                        l1356 73AA  
                      l1348 7376                        l1292 760A                        l1276 7576  
                      l1284 7592                        l1196 7628                        l1372 733E  
                      l1364 72FE                        l1358 73AC                        l1294 760C  
                      l1286 75A2                        l1278 7578                        l1198 763A  
                      l1366 7302                        l1374 7342                        l1296 761C  
                      l1288 75D6                        l1368 7312                        l1298 744A  
                      STR_1 7FF6                        _LATD 000F8C            ??_glcd_WriteByte 0002  
                      _main 728A                        prodh 000FF4                        prodl 000FF3  
                      start 0000             __end_of_Font3x6 7FF6                ___param_bank 000000  
           __end_of_Font8x8 7F33          glcd_WriteChar8X8@i 000A          glcd_WriteChar3x6@i 0008  
                     ?_main 0001                       _PORTA 000F80                       _PORTB 000F81  
                     _PORTD 000F83                       _TRISA 000F92                       _TRISB 000F93  
                     _TRISD 000F95                       tablat 000FF5                       status 000FD8  
        glcd_WriteByte@data 0001             __initialization 727C          glcd_WriteByte@side 0002  
              __end_of_main 72BC                      ??_main 0010               __activetblptr 000002  
           _glcd_FillScreen 73C8         glcd_WriteChar8X8@ch 0008         glcd_WriteChar3x6@ch 0007  
                    _ADCON1 000FC1           ?_glcd_WriteString 000C          ??_glcd_WriteString 0010  
                    isa$std 000001                __mediumconst 7732                      tblptrh 000FF7  
                    tblptrl 000FF6                      tblptru 000FF8                  __accesstop 0060  
   __end_of__initialization 7280               ___rparam_used 000001              __pcstackCOMRAM 0001  
   __end_of_glcd_FillScreen 7448      glcd_WriteChar8X8@color 0003          __size_of_glcd_Init 00CA  
      glcd_WriteChar8X8@chr 0006      glcd_WriteChar3x6@color 0003           _glcd_WriteChar8X8 7622  
         _glcd_WriteChar3x6 7512          ?_glcd_WriteChar8X8 0003          ?_glcd_WriteChar3x6 0003  
       ??_glcd_WriteChar8X8 0004         ??_glcd_WriteChar3x6 0004                     _Font3x6 7F33  
                   _Font8x8 7733           __end_of_glcd_Init 7512                     __Hparam 0000  
                   __Lparam 0000            ?_glcd_FillScreen 0001         glcd_WriteString@str 000C  
                   __pcinit 727C                     __ramtop 0800   __end_of_glcd_WriteChar8X8 7732  
 __end_of_glcd_WriteChar3x6 7622                     __ptext0 728A                     __ptext1 72FE  
                   __ptext2 7622                     __ptext3 7512                     __ptext4 7360  
                   __ptext5 7448                     __ptext6 73C8                     __ptext7 72BC  
   __size_of_glcd_SetCursor 0068        end_of_initialization 7280               __Lmediumconst 7732  
   __size_of_glcd_WriteByte 0042                   _PORTEbits 000F84   __size_of_glcd_WriteString 0062  
__size_of_glcd_WriteChar8X8 0110  __size_of_glcd_WriteChar3x6 0110         start_initialization 727C  
        glcd_SetCursor@side 0004          glcd_SetCursor@xpos 0005          glcd_SetCursor@ypos 0003  
      glcd_FillScreen@color 0003              _glcd_SetCursor 7360                 __pbssCOMRAM 0010  
     glcd_WriteString@color 000F       glcd_WriteChar8X8@side 000B       glcd_WriteChar8X8@xpos 0009  
     glcd_WriteChar3x6@side 0009       glcd_WriteChar3x6@xpos 0006               __pmediumconst 7732  
            _glcd_WriteByte 72BC                   _glcd_Init 7448      __end_of_glcd_SetCursor 73C8  
          _glcd_WriteString 72FE                    _LATBbits 000F8A      __end_of_glcd_WriteByte 72FE  
                ?_glcd_Init 0001             ?_glcd_SetCursor 0003    __size_of_glcd_FillScreen 0080  
          glcd_FillScreen@i 0005            glcd_FillScreen@j 0004                    __Hrparam 0000  
           ?_glcd_WriteByte 0001                    __Lrparam 0000        glcd_WriteString@font 000E  
             __size_of_main 0032               glcd_Init@mode 0007                    isa$xinst 000000  
               ??_glcd_Init 0006           ??_glcd_FillScreen 0003    __end_of_glcd_WriteString 7360  
          ??_glcd_SetCursor 0004  
